
./libnative-lib.so:     file format elf32-littlearm


Disassembly of section .plt:

000004fc <__cxa_atexit@plt-0x14>:
 4fc:	e52de004 	push	{lr}		; (str lr, [sp, #-4]!)
 500:	e59fe004 	ldr	lr, [pc, #4]	; 50c <__cxa_atexit@plt-0x4>
 504:	e08fe00e 	add	lr, pc, lr
 508:	e5bef008 	ldr	pc, [lr, #8]!
 50c:	00002ac8 	andeq	r2, r0, r8, asr #21

00000510 <__cxa_atexit@plt>:
 510:	e28fc600 	add	ip, pc, #0, 12
 514:	e28cca02 	add	ip, ip, #8192	; 0x2000
 518:	e5bcfac8 	ldr	pc, [ip, #2760]!	; 0xac8

0000051c <__cxa_finalize@plt>:
 51c:	e28fc600 	add	ip, pc, #0, 12
 520:	e28cca02 	add	ip, ip, #8192	; 0x2000
 524:	e5bcfac0 	ldr	pc, [ip, #2752]!	; 0xac0

00000528 <strlen@plt>:
 528:	e28fc600 	add	ip, pc, #0, 12
 52c:	e28cca02 	add	ip, ip, #8192	; 0x2000
 530:	e5bcfab8 	ldr	pc, [ip, #2744]!	; 0xab8

00000534 <__gnu_Unwind_Find_exidx@plt>:
 534:	e28fc600 	add	ip, pc, #0, 12
 538:	e28cca02 	add	ip, ip, #8192	; 0x2000
 53c:	e5bcfab0 	ldr	pc, [ip, #2736]!	; 0xab0

00000540 <abort@plt>:
 540:	e28fc600 	add	ip, pc, #0, 12
 544:	e28cca02 	add	ip, ip, #8192	; 0x2000
 548:	e5bcfaa8 	ldr	pc, [ip, #2728]!	; 0xaa8

0000054c <memcpy@plt>:
 54c:	e28fc600 	add	ip, pc, #0, 12
 550:	e28cca02 	add	ip, ip, #8192	; 0x2000
 554:	e5bcfaa0 	ldr	pc, [ip, #2720]!	; 0xaa0

00000558 <__cxa_begin_cleanup@plt>:
 558:	e28fc600 	add	ip, pc, #0, 12
 55c:	e28cca02 	add	ip, ip, #8192	; 0x2000
 560:	e5bcfa98 	ldr	pc, [ip, #2712]!	; 0xa98

00000564 <__cxa_type_match@plt>:
 564:	e28fc600 	add	ip, pc, #0, 12
 568:	e28cca02 	add	ip, ip, #8192	; 0x2000
 56c:	e5bcfa90 	ldr	pc, [ip, #2704]!	; 0xa90

Disassembly of section .text:

00000570 <Java_com_ctf_app3_MainActivity_check@@Base-0x3c>:
     570:	e59f0004 	ldr	r0, [pc, #4]	; 57c <__cxa_type_match@plt+0x18>
     574:	e08f0000 	add	r0, pc, r0
     578:	eaffffe7 	b	51c <__cxa_finalize@plt>
     57c:	00002a84 	andeq	r2, r0, r4, lsl #21
     580:	e3500000 	cmp	r0, #0
     584:	012fff1e 	bxeq	lr
     588:	e12fff10 	bx	r0
     58c:	e1a01000 	mov	r1, r0
     590:	e59f200c 	ldr	r2, [pc, #12]	; 5a4 <__cxa_type_match@plt+0x40>
     594:	e59f000c 	ldr	r0, [pc, #12]	; 5a8 <__cxa_type_match@plt+0x44>
     598:	e08f2002 	add	r2, pc, r2
     59c:	e08f0000 	add	r0, pc, r0
     5a0:	eaffffda 	b	510 <__cxa_atexit@plt>
     5a4:	00002a60 	andeq	r2, r0, r0, ror #20
     5a8:	ffffffdc 			; <UNDEFINED> instruction: 0xffffffdc

000005ac <Java_com_ctf_app3_MainActivity_check@@Base>:
     5ac:	b5b0      	push	{r4, r5, r7, lr}
     5ae:	af02      	add	r7, sp, #8
     5b0:	21a9      	movs	r1, #169	; 0xa9
     5b2:	0089      	lsls	r1, r1, #2
     5b4:	6803      	ldr	r3, [r0, #0]
     5b6:	585b      	ldr	r3, [r3, r1]
     5b8:	2400      	movs	r4, #0
     5ba:	0011      	movs	r1, r2
     5bc:	0022      	movs	r2, r4
     5be:	4798      	blx	r3
     5c0:	0005      	movs	r5, r0
     5c2:	f7ff efb2 	blx	528 <strlen@plt>
     5c6:	2818      	cmp	r0, #24
     5c8:	d148      	bne.n	65c <Java_com_ctf_app3_MainActivity_check@@Base+0xb0>
     5ca:	7ca8      	ldrb	r0, [r5, #18]
     5cc:	2873      	cmp	r0, #115	; 0x73
     5ce:	d145      	bne.n	65c <Java_com_ctf_app3_MainActivity_check@@Base+0xb0>
     5d0:	7b28      	ldrb	r0, [r5, #12]
     5d2:	2866      	cmp	r0, #102	; 0x66
     5d4:	d142      	bne.n	65c <Java_com_ctf_app3_MainActivity_check@@Base+0xb0>
     5d6:	7ba8      	ldrb	r0, [r5, #14]
     5d8:	2864      	cmp	r0, #100	; 0x64
     5da:	d13f      	bne.n	65c <Java_com_ctf_app3_MainActivity_check@@Base+0xb0>
     5dc:	7c28      	ldrb	r0, [r5, #16]
     5de:	2868      	cmp	r0, #104	; 0x68
     5e0:	d13c      	bne.n	65c <Java_com_ctf_app3_MainActivity_check@@Base+0xb0>
     5e2:	7ae8      	ldrb	r0, [r5, #11]
     5e4:	285f      	cmp	r0, #95	; 0x5f
     5e6:	d139      	bne.n	65c <Java_com_ctf_app3_MainActivity_check@@Base+0xb0>
     5e8:	7b68      	ldrb	r0, [r5, #13]
     5ea:	2865      	cmp	r0, #101	; 0x65
     5ec:	d136      	bne.n	65c <Java_com_ctf_app3_MainActivity_check@@Base+0xb0>
     5ee:	7aa8      	ldrb	r0, [r5, #10]
     5f0:	2864      	cmp	r0, #100	; 0x64
     5f2:	d133      	bne.n	65c <Java_com_ctf_app3_MainActivity_check@@Base+0xb0>
     5f4:	78e8      	ldrb	r0, [r5, #3]
     5f6:	285f      	cmp	r0, #95	; 0x5f
     5f8:	d130      	bne.n	65c <Java_com_ctf_app3_MainActivity_check@@Base+0xb0>
     5fa:	7d68      	ldrb	r0, [r5, #21]
     5fc:	2865      	cmp	r0, #101	; 0x65
     5fe:	d12d      	bne.n	65c <Java_com_ctf_app3_MainActivity_check@@Base+0xb0>
     600:	7be8      	ldrb	r0, [r5, #15]
     602:	285f      	cmp	r0, #95	; 0x5f
     604:	d12a      	bne.n	65c <Java_com_ctf_app3_MainActivity_check@@Base+0xb0>
     606:	7da8      	ldrb	r0, [r5, #22]
     608:	2874      	cmp	r0, #116	; 0x74
     60a:	d127      	bne.n	65c <Java_com_ctf_app3_MainActivity_check@@Base+0xb0>
     60c:	7a68      	ldrb	r0, [r5, #9]
     60e:	2869      	cmp	r0, #105	; 0x69
     610:	d124      	bne.n	65c <Java_com_ctf_app3_MainActivity_check@@Base+0xb0>
     612:	7968      	ldrb	r0, [r5, #5]
     614:	286e      	cmp	r0, #110	; 0x6e
     616:	d121      	bne.n	65c <Java_com_ctf_app3_MainActivity_check@@Base+0xb0>
     618:	7868      	ldrb	r0, [r5, #1]
     61a:	2868      	cmp	r0, #104	; 0x68
     61c:	d11e      	bne.n	65c <Java_com_ctf_app3_MainActivity_check@@Base+0xb0>
     61e:	7de8      	ldrb	r0, [r5, #23]
     620:	2873      	cmp	r0, #115	; 0x73
     622:	d11b      	bne.n	65c <Java_com_ctf_app3_MainActivity_check@@Base+0xb0>
     624:	78a8      	ldrb	r0, [r5, #2]
     626:	2865      	cmp	r0, #101	; 0x65
     628:	d118      	bne.n	65c <Java_com_ctf_app3_MainActivity_check@@Base+0xb0>
     62a:	79e8      	ldrb	r0, [r5, #7]
     62c:	2872      	cmp	r0, #114	; 0x72
     62e:	d115      	bne.n	65c <Java_com_ctf_app3_MainActivity_check@@Base+0xb0>
     630:	7a28      	ldrb	r0, [r5, #8]
     632:	286f      	cmp	r0, #111	; 0x6f
     634:	d112      	bne.n	65c <Java_com_ctf_app3_MainActivity_check@@Base+0xb0>
     636:	7d28      	ldrb	r0, [r5, #20]
     638:	2870      	cmp	r0, #112	; 0x70
     63a:	d10f      	bne.n	65c <Java_com_ctf_app3_MainActivity_check@@Base+0xb0>
     63c:	7ce8      	ldrb	r0, [r5, #19]
     63e:	285f      	cmp	r0, #95	; 0x5f
     640:	d10c      	bne.n	65c <Java_com_ctf_app3_MainActivity_check@@Base+0xb0>
     642:	7828      	ldrb	r0, [r5, #0]
     644:	2874      	cmp	r0, #116	; 0x74
     646:	d109      	bne.n	65c <Java_com_ctf_app3_MainActivity_check@@Base+0xb0>
     648:	79a8      	ldrb	r0, [r5, #6]
     64a:	2864      	cmp	r0, #100	; 0x64
     64c:	d106      	bne.n	65c <Java_com_ctf_app3_MainActivity_check@@Base+0xb0>
     64e:	7c68      	ldrb	r0, [r5, #17]
     650:	2869      	cmp	r0, #105	; 0x69
     652:	d103      	bne.n	65c <Java_com_ctf_app3_MainActivity_check@@Base+0xb0>
     654:	7929      	ldrb	r1, [r5, #4]
     656:	2001      	movs	r0, #1
     658:	2961      	cmp	r1, #97	; 0x61
     65a:	d000      	beq.n	65e <Java_com_ctf_app3_MainActivity_check@@Base+0xb2>
     65c:	0020      	movs	r0, r4
     65e:	bdb0      	pop	{r4, r5, r7, pc}
     660:	6803      	ldr	r3, [r0, #0]
     662:	005a      	lsls	r2, r3, #1
     664:	d503      	bpl.n	66e <Java_com_ctf_app3_MainActivity_check@@Base+0xc2>
     666:	2280      	movs	r2, #128	; 0x80
     668:	0612      	lsls	r2, r2, #24
     66a:	4313      	orrs	r3, r2
     66c:	e001      	b.n	672 <Java_com_ctf_app3_MainActivity_check@@Base+0xc6>
     66e:	005b      	lsls	r3, r3, #1
     670:	085b      	lsrs	r3, r3, #1
     672:	18c0      	adds	r0, r0, r3
     674:	4770      	bx	lr
     676:	b5f0      	push	{r4, r5, r6, r7, lr}
     678:	1c0e      	adds	r6, r1, #0
     67a:	b087      	sub	sp, #28
     67c:	2900      	cmp	r1, #0
     67e:	d02e      	beq.n	6de <Java_com_ctf_app3_MainActivity_check@@Base+0x132>
     680:	1e4b      	subs	r3, r1, #1
     682:	2700      	movs	r7, #0
     684:	9201      	str	r2, [sp, #4]
     686:	9005      	str	r0, [sp, #20]
     688:	9303      	str	r3, [sp, #12]
     68a:	9302      	str	r3, [sp, #8]
     68c:	9b02      	ldr	r3, [sp, #8]
     68e:	18fb      	adds	r3, r7, r3
     690:	0fdc      	lsrs	r4, r3, #31
     692:	18e4      	adds	r4, r4, r3
     694:	1064      	asrs	r4, r4, #1
     696:	9b05      	ldr	r3, [sp, #20]
     698:	00e5      	lsls	r5, r4, #3
     69a:	195e      	adds	r6, r3, r5
     69c:	1c30      	adds	r0, r6, #0
     69e:	f7ff ffdf 	bl	660 <Java_com_ctf_app3_MainActivity_check@@Base+0xb4>
     6a2:	9b03      	ldr	r3, [sp, #12]
     6a4:	9004      	str	r0, [sp, #16]
     6a6:	429c      	cmp	r4, r3
     6a8:	d015      	beq.n	6d6 <Java_com_ctf_app3_MainActivity_check@@Base+0x12a>
     6aa:	9b05      	ldr	r3, [sp, #20]
     6ac:	3508      	adds	r5, #8
     6ae:	1958      	adds	r0, r3, r5
     6b0:	f7ff ffd6 	bl	660 <Java_com_ctf_app3_MainActivity_check@@Base+0xb4>
     6b4:	9b01      	ldr	r3, [sp, #4]
     6b6:	9a04      	ldr	r2, [sp, #16]
     6b8:	4293      	cmp	r3, r2
     6ba:	d204      	bcs.n	6c6 <Java_com_ctf_app3_MainActivity_check@@Base+0x11a>
     6bc:	42bc      	cmp	r4, r7
     6be:	d008      	beq.n	6d2 <Java_com_ctf_app3_MainActivity_check@@Base+0x126>
     6c0:	1e63      	subs	r3, r4, #1
     6c2:	9302      	str	r3, [sp, #8]
     6c4:	e7e2      	b.n	68c <Java_com_ctf_app3_MainActivity_check@@Base+0xe0>
     6c6:	9b01      	ldr	r3, [sp, #4]
     6c8:	3801      	subs	r0, #1
     6ca:	4283      	cmp	r3, r0
     6cc:	d907      	bls.n	6de <Java_com_ctf_app3_MainActivity_check@@Base+0x132>
     6ce:	1c67      	adds	r7, r4, #1
     6d0:	e7dc      	b.n	68c <Java_com_ctf_app3_MainActivity_check@@Base+0xe0>
     6d2:	2600      	movs	r6, #0
     6d4:	e003      	b.n	6de <Java_com_ctf_app3_MainActivity_check@@Base+0x132>
     6d6:	9b01      	ldr	r3, [sp, #4]
     6d8:	9a04      	ldr	r2, [sp, #16]
     6da:	4293      	cmp	r3, r2
     6dc:	d3ee      	bcc.n	6bc <Java_com_ctf_app3_MainActivity_check@@Base+0x110>
     6de:	1c30      	adds	r0, r6, #0
     6e0:	b007      	add	sp, #28
     6e2:	bdf0      	pop	{r4, r5, r6, r7, pc}
     6e4:	2801      	cmp	r0, #1
     6e6:	d006      	beq.n	6f6 <Java_com_ctf_app3_MainActivity_check@@Base+0x14a>
     6e8:	2802      	cmp	r0, #2
     6ea:	d007      	beq.n	6fc <Java_com_ctf_app3_MainActivity_check@@Base+0x150>
     6ec:	2800      	cmp	r0, #0
     6ee:	d109      	bne.n	704 <Java_com_ctf_app3_MainActivity_check@@Base+0x158>
     6f0:	4805      	ldr	r0, [pc, #20]	; (708 <Java_com_ctf_app3_MainActivity_check@@Base+0x15c>)
     6f2:	4478      	add	r0, pc
     6f4:	e004      	b.n	700 <Java_com_ctf_app3_MainActivity_check@@Base+0x154>
     6f6:	4805      	ldr	r0, [pc, #20]	; (70c <Java_com_ctf_app3_MainActivity_check@@Base+0x160>)
     6f8:	4478      	add	r0, pc
     6fa:	e001      	b.n	700 <Java_com_ctf_app3_MainActivity_check@@Base+0x154>
     6fc:	4804      	ldr	r0, [pc, #16]	; (710 <Java_com_ctf_app3_MainActivity_check@@Base+0x164>)
     6fe:	4478      	add	r0, pc
     700:	6800      	ldr	r0, [r0, #0]
     702:	e000      	b.n	706 <Java_com_ctf_app3_MainActivity_check@@Base+0x15a>
     704:	2000      	movs	r0, #0
     706:	4770      	bx	lr
     708:	28c2      	cmp	r0, #194	; 0xc2
     70a:	0000      	movs	r0, r0
     70c:	28c0      	cmp	r0, #192	; 0xc0
     70e:	0000      	movs	r0, r0
     710:	28be      	cmp	r0, #190	; 0xbe
     712:	0000      	movs	r0, r0
     714:	4b25      	ldr	r3, [pc, #148]	; (7ac <Java_com_ctf_app3_MainActivity_check@@Base+0x200>)
     716:	b537      	push	{r0, r1, r2, r4, r5, lr}
     718:	447b      	add	r3, pc
     71a:	681b      	ldr	r3, [r3, #0]
     71c:	1c04      	adds	r4, r0, #0
     71e:	1e8d      	subs	r5, r1, #2
     720:	2b00      	cmp	r3, #0
     722:	d009      	beq.n	738 <Java_com_ctf_app3_MainActivity_check@@Base+0x18c>
     724:	1c28      	adds	r0, r5, #0
     726:	a901      	add	r1, sp, #4
     728:	f7ff ef04 	blx	534 <__gnu_Unwind_Find_exidx@plt>
     72c:	2800      	cmp	r0, #0
     72e:	d10c      	bne.n	74a <Java_com_ctf_app3_MainActivity_check@@Base+0x19e>
     730:	2300      	movs	r3, #0
     732:	6123      	str	r3, [r4, #16]
     734:	2409      	movs	r4, #9
     736:	e036      	b.n	7a6 <Java_com_ctf_app3_MainActivity_check@@Base+0x1fa>
     738:	4b1d      	ldr	r3, [pc, #116]	; (7b0 <Java_com_ctf_app3_MainActivity_check@@Base+0x204>)
     73a:	481e      	ldr	r0, [pc, #120]	; (7b4 <Java_com_ctf_app3_MainActivity_check@@Base+0x208>)
     73c:	447b      	add	r3, pc
     73e:	4478      	add	r0, pc
     740:	681b      	ldr	r3, [r3, #0]
     742:	6800      	ldr	r0, [r0, #0]
     744:	1a1b      	subs	r3, r3, r0
     746:	10db      	asrs	r3, r3, #3
     748:	9301      	str	r3, [sp, #4]
     74a:	1c2a      	adds	r2, r5, #0
     74c:	9901      	ldr	r1, [sp, #4]
     74e:	f7ff ff92 	bl	676 <Java_com_ctf_app3_MainActivity_check@@Base+0xca>
     752:	1e05      	subs	r5, r0, #0
     754:	d0ec      	beq.n	730 <Java_com_ctf_app3_MainActivity_check@@Base+0x184>
     756:	f7ff ff83 	bl	660 <Java_com_ctf_app3_MainActivity_check@@Base+0xb4>
     75a:	686b      	ldr	r3, [r5, #4]
     75c:	64a0      	str	r0, [r4, #72]	; 0x48
     75e:	2b01      	cmp	r3, #1
     760:	d103      	bne.n	76a <Java_com_ctf_app3_MainActivity_check@@Base+0x1be>
     762:	2300      	movs	r3, #0
     764:	6123      	str	r3, [r4, #16]
     766:	2405      	movs	r4, #5
     768:	e01d      	b.n	7a6 <Java_com_ctf_app3_MainActivity_check@@Base+0x1fa>
     76a:	1d28      	adds	r0, r5, #4
     76c:	2b00      	cmp	r3, #0
     76e:	da02      	bge.n	776 <Java_com_ctf_app3_MainActivity_check@@Base+0x1ca>
     770:	64e0      	str	r0, [r4, #76]	; 0x4c
     772:	2301      	movs	r3, #1
     774:	e003      	b.n	77e <Java_com_ctf_app3_MainActivity_check@@Base+0x1d2>
     776:	f7ff ff73 	bl	660 <Java_com_ctf_app3_MainActivity_check@@Base+0xb4>
     77a:	2300      	movs	r3, #0
     77c:	64e0      	str	r0, [r4, #76]	; 0x4c
     77e:	6ce0      	ldr	r0, [r4, #76]	; 0x4c
     780:	6523      	str	r3, [r4, #80]	; 0x50
     782:	6803      	ldr	r3, [r0, #0]
     784:	2b00      	cmp	r3, #0
     786:	da0a      	bge.n	79e <Java_com_ctf_app3_MainActivity_check@@Base+0x1f2>
     788:	0118      	lsls	r0, r3, #4
     78a:	0f00      	lsrs	r0, r0, #28
     78c:	f7ff ffaa 	bl	6e4 <Java_com_ctf_app3_MainActivity_check@@Base+0x138>
     790:	6120      	str	r0, [r4, #16]
     792:	4243      	negs	r3, r0
     794:	4158      	adcs	r0, r3
     796:	2409      	movs	r4, #9
     798:	4240      	negs	r0, r0
     79a:	4004      	ands	r4, r0
     79c:	e003      	b.n	7a6 <Java_com_ctf_app3_MainActivity_check@@Base+0x1fa>
     79e:	f7ff ff5f 	bl	660 <Java_com_ctf_app3_MainActivity_check@@Base+0xb4>
     7a2:	6120      	str	r0, [r4, #16]
     7a4:	2400      	movs	r4, #0
     7a6:	1c20      	adds	r0, r4, #0
     7a8:	bd3e      	pop	{r1, r2, r3, r4, r5, pc}
     7aa:	46c0      	nop			; (mov r8, r8)
     7ac:	28a8      	cmp	r0, #168	; 0xa8
     7ae:	0000      	movs	r0, r0
     7b0:	2888      	cmp	r0, #136	; 0x88
     7b2:	0000      	movs	r0, r0
     7b4:	288a      	cmp	r0, #138	; 0x8a
     7b6:	0000      	movs	r0, r0
     7b8:	6803      	ldr	r3, [r0, #0]
     7ba:	b510      	push	{r4, lr}
     7bc:	1c04      	adds	r4, r0, #0
     7be:	07da      	lsls	r2, r3, #31
     7c0:	d407      	bmi.n	7d2 <Java_com_ctf_app3_MainActivity_check@@Base+0x226>
     7c2:	3048      	adds	r0, #72	; 0x48
     7c4:	079b      	lsls	r3, r3, #30
     7c6:	d502      	bpl.n	7ce <Java_com_ctf_app3_MainActivity_check@@Base+0x222>
     7c8:	f000 ec18 	blx	ffc <Java_com_ctf_app3_MainActivity_check@@Base+0xa50>
     7cc:	e001      	b.n	7d2 <Java_com_ctf_app3_MainActivity_check@@Base+0x226>
     7ce:	f000 ec0e 	blx	fec <Java_com_ctf_app3_MainActivity_check@@Base+0xa40>
     7d2:	6823      	ldr	r3, [r4, #0]
     7d4:	075b      	lsls	r3, r3, #29
     7d6:	d403      	bmi.n	7e0 <Java_com_ctf_app3_MainActivity_check@@Base+0x234>
     7d8:	1c20      	adds	r0, r4, #0
     7da:	30d0      	adds	r0, #208	; 0xd0
     7dc:	f000 ec16 	blx	100c <Java_com_ctf_app3_MainActivity_check@@Base+0xa60>
     7e0:	6823      	ldr	r3, [r4, #0]
     7e2:	071b      	lsls	r3, r3, #28
     7e4:	d404      	bmi.n	7f0 <Java_com_ctf_app3_MainActivity_check@@Base+0x244>
     7e6:	1c20      	adds	r0, r4, #0
     7e8:	3051      	adds	r0, #81	; 0x51
     7ea:	30ff      	adds	r0, #255	; 0xff
     7ec:	f000 ec16 	blx	101c <Java_com_ctf_app3_MainActivity_check@@Base+0xa70>
     7f0:	6823      	ldr	r3, [r4, #0]
     7f2:	06db      	lsls	r3, r3, #27
     7f4:	d404      	bmi.n	800 <Java_com_ctf_app3_MainActivity_check@@Base+0x254>
     7f6:	1c20      	adds	r0, r4, #0
     7f8:	30d1      	adds	r0, #209	; 0xd1
     7fa:	30ff      	adds	r0, #255	; 0xff
     7fc:	f000 ec52 	blx	10a4 <Java_com_ctf_app3_MainActivity_check@@Base+0xaf8>
     800:	bd10      	pop	{r4, pc}
     802:	6802      	ldr	r2, [r0, #0]
     804:	2300      	movs	r3, #0
     806:	429a      	cmp	r2, r3
     808:	d000      	beq.n	80c <Java_com_ctf_app3_MainActivity_check@@Base+0x260>
     80a:	5813      	ldr	r3, [r2, r0]
     80c:	1c18      	adds	r0, r3, #0
     80e:	4770      	bx	lr
     810:	2009      	movs	r0, #9
     812:	4770      	bx	lr
     814:	4770      	bx	lr
     816:	b570      	push	{r4, r5, r6, lr}
     818:	1c05      	adds	r5, r0, #0
     81a:	1c0c      	adds	r4, r1, #0
     81c:	1c28      	adds	r0, r5, #0
     81e:	6c21      	ldr	r1, [r4, #64]	; 0x40
     820:	f7ff ff78 	bl	714 <Java_com_ctf_app3_MainActivity_check@@Base+0x168>
     824:	1e06      	subs	r6, r0, #0
     826:	d001      	beq.n	82c <Java_com_ctf_app3_MainActivity_check@@Base+0x280>
     828:	f7ff ee8a 	blx	540 <abort@plt>
     82c:	6c23      	ldr	r3, [r4, #64]	; 0x40
     82e:	616b      	str	r3, [r5, #20]
     830:	2001      	movs	r0, #1
     832:	1c29      	adds	r1, r5, #0
     834:	1c22      	adds	r2, r4, #0
     836:	692b      	ldr	r3, [r5, #16]
     838:	4798      	blx	r3
     83a:	2808      	cmp	r0, #8
     83c:	d0ee      	beq.n	81c <Java_com_ctf_app3_MainActivity_check@@Base+0x270>
     83e:	2807      	cmp	r0, #7
     840:	d1f2      	bne.n	828 <Java_com_ctf_app3_MainActivity_check@@Base+0x27c>
     842:	1c30      	adds	r0, r6, #0
     844:	6c21      	ldr	r1, [r4, #64]	; 0x40
     846:	f7ff ffe5 	bl	814 <Java_com_ctf_app3_MainActivity_check@@Base+0x268>
     84a:	1d20      	adds	r0, r4, #4
     84c:	f000 ebc4 	blx	fd8 <Java_com_ctf_app3_MainActivity_check@@Base+0xa2c>
     850:	b5f0      	push	{r4, r5, r6, r7, lr}
     852:	4c2d      	ldr	r4, [pc, #180]	; (908 <Java_com_ctf_app3_MainActivity_check@@Base+0x35c>)
     854:	68c3      	ldr	r3, [r0, #12]
     856:	44a5      	add	sp, r4
     858:	9304      	str	r3, [sp, #16]
     85a:	2500      	movs	r5, #0
     85c:	6983      	ldr	r3, [r0, #24]
     85e:	1c04      	adds	r4, r0, #0
     860:	1c17      	adds	r7, r2, #0
     862:	3104      	adds	r1, #4
     864:	a807      	add	r0, sp, #28
     866:	2240      	movs	r2, #64	; 0x40
     868:	9305      	str	r3, [sp, #20]
     86a:	f7ff ee70 	blx	54c <memcpy@plt>
     86e:	9506      	str	r5, [sp, #24]
     870:	9503      	str	r5, [sp, #12]
     872:	ae06      	add	r6, sp, #24
     874:	1c20      	adds	r0, r4, #0
     876:	6c31      	ldr	r1, [r6, #64]	; 0x40
     878:	f7ff ff4c 	bl	714 <Java_com_ctf_app3_MainActivity_check@@Base+0x168>
     87c:	427b      	negs	r3, r7
     87e:	417b      	adcs	r3, r7
     880:	220a      	movs	r2, #10
     882:	1ad3      	subs	r3, r2, r3
     884:	9302      	str	r3, [sp, #8]
     886:	1e05      	subs	r5, r0, #0
     888:	d110      	bne.n	8ac <Java_com_ctf_app3_MainActivity_check@@Base+0x300>
     88a:	6c33      	ldr	r3, [r6, #64]	; 0x40
     88c:	af7e      	add	r7, sp, #504	; 0x1f8
     88e:	22f0      	movs	r2, #240	; 0xf0
     890:	6163      	str	r3, [r4, #20]
     892:	1c31      	adds	r1, r6, #0
     894:	0052      	lsls	r2, r2, #1
     896:	1c38      	adds	r0, r7, #0
     898:	f7ff ee58 	blx	54c <memcpy@plt>
     89c:	6923      	ldr	r3, [r4, #16]
     89e:	9802      	ldr	r0, [sp, #8]
     8a0:	1c21      	adds	r1, r4, #0
     8a2:	1c3a      	adds	r2, r7, #0
     8a4:	4798      	blx	r3
     8a6:	6bbb      	ldr	r3, [r7, #56]	; 0x38
     8a8:	9003      	str	r0, [sp, #12]
     8aa:	e004      	b.n	8b6 <Java_com_ctf_app3_MainActivity_check@@Base+0x30a>
     8ac:	9a02      	ldr	r2, [sp, #8]
     8ae:	2310      	movs	r3, #16
     8b0:	431a      	orrs	r2, r3
     8b2:	6bb3      	ldr	r3, [r6, #56]	; 0x38
     8b4:	9202      	str	r2, [sp, #8]
     8b6:	6473      	str	r3, [r6, #68]	; 0x44
     8b8:	9b05      	ldr	r3, [sp, #20]
     8ba:	ae06      	add	r6, sp, #24
     8bc:	9301      	str	r3, [sp, #4]
     8be:	9600      	str	r6, [sp, #0]
     8c0:	2001      	movs	r0, #1
     8c2:	9902      	ldr	r1, [sp, #8]
     8c4:	1c22      	adds	r2, r4, #0
     8c6:	1c23      	adds	r3, r4, #0
     8c8:	9f04      	ldr	r7, [sp, #16]
     8ca:	47b8      	blx	r7
     8cc:	2800      	cmp	r0, #0
     8ce:	d114      	bne.n	8fa <Java_com_ctf_app3_MainActivity_check@@Base+0x34e>
     8d0:	2d00      	cmp	r5, #0
     8d2:	d114      	bne.n	8fe <Java_com_ctf_app3_MainActivity_check@@Base+0x352>
     8d4:	22f0      	movs	r2, #240	; 0xf0
     8d6:	1c30      	adds	r0, r6, #0
     8d8:	a97e      	add	r1, sp, #504	; 0x1f8
     8da:	0052      	lsls	r2, r2, #1
     8dc:	f7ff ee36 	blx	54c <memcpy@plt>
     8e0:	9b03      	ldr	r3, [sp, #12]
     8e2:	1c2f      	adds	r7, r5, #0
     8e4:	2b08      	cmp	r3, #8
     8e6:	d0c4      	beq.n	872 <Java_com_ctf_app3_MainActivity_check@@Base+0x2c6>
     8e8:	2b07      	cmp	r3, #7
     8ea:	d106      	bne.n	8fa <Java_com_ctf_app3_MainActivity_check@@Base+0x34e>
     8ec:	1c28      	adds	r0, r5, #0
     8ee:	6c31      	ldr	r1, [r6, #64]	; 0x40
     8f0:	f7ff ff90 	bl	814 <Java_com_ctf_app3_MainActivity_check@@Base+0x268>
     8f4:	a807      	add	r0, sp, #28
     8f6:	f000 eb70 	blx	fd8 <Java_com_ctf_app3_MainActivity_check@@Base+0xa2c>
     8fa:	2009      	movs	r0, #9
     8fc:	e000      	b.n	900 <Java_com_ctf_app3_MainActivity_check@@Base+0x354>
     8fe:	1c28      	adds	r0, r5, #0
     900:	23f7      	movs	r3, #247	; 0xf7
     902:	009b      	lsls	r3, r3, #2
     904:	449d      	add	sp, r3
     906:	bdf0      	pop	{r4, r5, r6, r7, pc}
     908:	fc24 ffff 	stc2	15, cr15, [r4], #-1020	; 0xfffffc04
     90c:	6c40      	ldr	r0, [r0, #68]	; 0x44
     90e:	4770      	bx	lr
     910:	b5f0      	push	{r4, r5, r6, r7, lr}
     912:	6bcb      	ldr	r3, [r1, #60]	; 0x3c
     914:	b0f9      	sub	sp, #484	; 0x1e4
     916:	640b      	str	r3, [r1, #64]	; 0x40
     918:	1c05      	adds	r5, r0, #0
     91a:	1c0c      	adds	r4, r1, #0
     91c:	a801      	add	r0, sp, #4
     91e:	3104      	adds	r1, #4
     920:	2240      	movs	r2, #64	; 0x40
     922:	f7ff ee14 	blx	54c <memcpy@plt>
     926:	2301      	movs	r3, #1
     928:	425b      	negs	r3, r3
     92a:	9300      	str	r3, [sp, #0]
     92c:	1c28      	adds	r0, r5, #0
     92e:	9910      	ldr	r1, [sp, #64]	; 0x40
     930:	f7ff fef0 	bl	714 <Java_com_ctf_app3_MainActivity_check@@Base+0x168>
     934:	2800      	cmp	r0, #0
     936:	d10f      	bne.n	958 <Java_com_ctf_app3_MainActivity_check@@Base+0x3ac>
     938:	1c29      	adds	r1, r5, #0
     93a:	466a      	mov	r2, sp
     93c:	692b      	ldr	r3, [r5, #16]
     93e:	4798      	blx	r3
     940:	1e07      	subs	r7, r0, #0
     942:	2f08      	cmp	r7, #8
     944:	d0f2      	beq.n	92c <Java_com_ctf_app3_MainActivity_check@@Base+0x380>
     946:	4668      	mov	r0, sp
     948:	f7ff ff36 	bl	7b8 <Java_com_ctf_app3_MainActivity_check@@Base+0x20c>
     94c:	2f06      	cmp	r7, #6
     94e:	d103      	bne.n	958 <Java_com_ctf_app3_MainActivity_check@@Base+0x3ac>
     950:	1c28      	adds	r0, r5, #0
     952:	1c21      	adds	r1, r4, #0
     954:	f7ff ff5f 	bl	816 <Java_com_ctf_app3_MainActivity_check@@Base+0x26a>
     958:	2009      	movs	r0, #9
     95a:	b079      	add	sp, #484	; 0x1e4
     95c:	bdf0      	pop	{r4, r5, r6, r7, pc}
     95e:	b508      	push	{r3, lr}
     960:	6182      	str	r2, [r0, #24]
     962:	6bda      	ldr	r2, [r3, #60]	; 0x3c
     964:	60c1      	str	r1, [r0, #12]
     966:	641a      	str	r2, [r3, #64]	; 0x40
     968:	1c19      	adds	r1, r3, #0
     96a:	2200      	movs	r2, #0
     96c:	f7ff ff70 	bl	850 <Java_com_ctf_app3_MainActivity_check@@Base+0x2a4>
     970:	bd08      	pop	{r3, pc}
     972:	b570      	push	{r4, r5, r6, lr}
     974:	68c6      	ldr	r6, [r0, #12]
     976:	6943      	ldr	r3, [r0, #20]
     978:	1c05      	adds	r5, r0, #0
     97a:	1c0c      	adds	r4, r1, #0
     97c:	640b      	str	r3, [r1, #64]	; 0x40
     97e:	2e00      	cmp	r6, #0
     980:	d003      	beq.n	98a <Java_com_ctf_app3_MainActivity_check@@Base+0x3de>
     982:	2201      	movs	r2, #1
     984:	f7ff ff64 	bl	850 <Java_com_ctf_app3_MainActivity_check@@Base+0x2a4>
     988:	e013      	b.n	9b2 <Java_com_ctf_app3_MainActivity_check@@Base+0x406>
     98a:	2002      	movs	r0, #2
     98c:	1c29      	adds	r1, r5, #0
     98e:	1c22      	adds	r2, r4, #0
     990:	692b      	ldr	r3, [r5, #16]
     992:	4798      	blx	r3
     994:	2807      	cmp	r0, #7
     996:	d005      	beq.n	9a4 <Java_com_ctf_app3_MainActivity_check@@Base+0x3f8>
     998:	2808      	cmp	r0, #8
     99a:	d10a      	bne.n	9b2 <Java_com_ctf_app3_MainActivity_check@@Base+0x406>
     99c:	1c28      	adds	r0, r5, #0
     99e:	1c21      	adds	r1, r4, #0
     9a0:	f7ff ff39 	bl	816 <Java_com_ctf_app3_MainActivity_check@@Base+0x26a>
     9a4:	1c30      	adds	r0, r6, #0
     9a6:	6c21      	ldr	r1, [r4, #64]	; 0x40
     9a8:	f7ff ff34 	bl	814 <Java_com_ctf_app3_MainActivity_check@@Base+0x268>
     9ac:	1d20      	adds	r0, r4, #4
     9ae:	f000 eb14 	blx	fd8 <Java_com_ctf_app3_MainActivity_check@@Base+0xa2c>
     9b2:	f7ff edc6 	blx	540 <abort@plt>
     9b6:	b508      	push	{r3, lr}
     9b8:	68c3      	ldr	r3, [r0, #12]
     9ba:	2b00      	cmp	r3, #0
     9bc:	d102      	bne.n	9c4 <Java_com_ctf_app3_MainActivity_check@@Base+0x418>
     9be:	f7ff ffa7 	bl	910 <Java_com_ctf_app3_MainActivity_check@@Base+0x364>
     9c2:	e004      	b.n	9ce <Java_com_ctf_app3_MainActivity_check@@Base+0x422>
     9c4:	6bcb      	ldr	r3, [r1, #60]	; 0x3c
     9c6:	640b      	str	r3, [r1, #64]	; 0x40
     9c8:	2200      	movs	r2, #0
     9ca:	f7ff ff41 	bl	850 <Java_com_ctf_app3_MainActivity_check@@Base+0x2a4>
     9ce:	bd08      	pop	{r3, pc}
     9d0:	4770      	bx	lr
     9d2:	b508      	push	{r3, lr}
     9d4:	6883      	ldr	r3, [r0, #8]
     9d6:	2b00      	cmp	r3, #0
     9d8:	d002      	beq.n	9e0 <Java_com_ctf_app3_MainActivity_check@@Base+0x434>
     9da:	1c01      	adds	r1, r0, #0
     9dc:	2001      	movs	r0, #1
     9de:	4798      	blx	r3
     9e0:	bd08      	pop	{r3, pc}
     9e2:	b510      	push	{r4, lr}
     9e4:	1c04      	adds	r4, r0, #0
     9e6:	2904      	cmp	r1, #4
     9e8:	d805      	bhi.n	9f6 <Java_com_ctf_app3_MainActivity_check@@Base+0x44a>
     9ea:	1c08      	adds	r0, r1, #0
     9ec:	f000 fd6c 	bl	14c8 <Java_com_ctf_app3_MainActivity_check@@Base+0xf1c>
     9f0:	1105      	asrs	r5, r0, #4
     9f2:	1103      	asrs	r3, r0, #4
     9f4:	0011      	movs	r1, r2
     9f6:	2002      	movs	r0, #2
     9f8:	e00c      	b.n	a14 <Java_com_ctf_app3_MainActivity_check@@Base+0x468>
     9fa:	2002      	movs	r0, #2
     9fc:	2b00      	cmp	r3, #0
     9fe:	d109      	bne.n	a14 <Java_com_ctf_app3_MainActivity_check@@Base+0x468>
     a00:	2a0f      	cmp	r2, #15
     a02:	d807      	bhi.n	a14 <Java_com_ctf_app3_MainActivity_check@@Base+0x468>
     a04:	4082      	lsls	r2, r0
     a06:	18a2      	adds	r2, r4, r2
     a08:	6851      	ldr	r1, [r2, #4]
     a0a:	9a02      	ldr	r2, [sp, #8]
     a0c:	1c18      	adds	r0, r3, #0
     a0e:	6011      	str	r1, [r2, #0]
     a10:	e000      	b.n	a14 <Java_com_ctf_app3_MainActivity_check@@Base+0x468>
     a12:	2001      	movs	r0, #1
     a14:	bd10      	pop	{r4, pc}
     a16:	b51f      	push	{r0, r1, r2, r3, r4, lr}
     a18:	1c0a      	adds	r2, r1, #0
     a1a:	ab03      	add	r3, sp, #12
     a1c:	2100      	movs	r1, #0
     a1e:	9300      	str	r3, [sp, #0]
     a20:	1c0b      	adds	r3, r1, #0
     a22:	f7ff ffde 	bl	9e2 <Java_com_ctf_app3_MainActivity_check@@Base+0x436>
     a26:	9803      	ldr	r0, [sp, #12]
     a28:	b005      	add	sp, #20
     a2a:	bd00      	pop	{pc}
     a2c:	b510      	push	{r4, lr}
     a2e:	1c04      	adds	r4, r0, #0
     a30:	2904      	cmp	r1, #4
     a32:	d805      	bhi.n	a40 <Java_com_ctf_app3_MainActivity_check@@Base+0x494>
     a34:	1c08      	adds	r0, r1, #0
     a36:	f000 fd47 	bl	14c8 <Java_com_ctf_app3_MainActivity_check@@Base+0xf1c>
     a3a:	1105      	asrs	r5, r0, #4
     a3c:	1103      	asrs	r3, r0, #4
     a3e:	0011      	movs	r1, r2
     a40:	2002      	movs	r0, #2
     a42:	e00c      	b.n	a5e <Java_com_ctf_app3_MainActivity_check@@Base+0x4b2>
     a44:	2002      	movs	r0, #2
     a46:	2b00      	cmp	r3, #0
     a48:	d109      	bne.n	a5e <Java_com_ctf_app3_MainActivity_check@@Base+0x4b2>
     a4a:	2a0f      	cmp	r2, #15
     a4c:	d807      	bhi.n	a5e <Java_com_ctf_app3_MainActivity_check@@Base+0x4b2>
     a4e:	9902      	ldr	r1, [sp, #8]
     a50:	4082      	lsls	r2, r0
     a52:	6809      	ldr	r1, [r1, #0]
     a54:	18a2      	adds	r2, r4, r2
     a56:	6051      	str	r1, [r2, #4]
     a58:	1c18      	adds	r0, r3, #0
     a5a:	e000      	b.n	a5e <Java_com_ctf_app3_MainActivity_check@@Base+0x4b2>
     a5c:	2001      	movs	r0, #1
     a5e:	bd10      	pop	{r4, pc}
     a60:	b51f      	push	{r0, r1, r2, r3, r4, lr}
     a62:	1c0b      	adds	r3, r1, #0
     a64:	9203      	str	r2, [sp, #12]
     a66:	2100      	movs	r1, #0
     a68:	aa03      	add	r2, sp, #12
     a6a:	9200      	str	r2, [sp, #0]
     a6c:	1c1a      	adds	r2, r3, #0
     a6e:	1c0b      	adds	r3, r1, #0
     a70:	f7ff ffdc 	bl	a2c <Java_com_ctf_app3_MainActivity_check@@Base+0x480>
     a74:	b005      	add	sp, #20
     a76:	bd00      	pop	{pc}
     a78:	b5f0      	push	{r4, r5, r6, r7, lr}
     a7a:	4c1a      	ldr	r4, [pc, #104]	; (ae4 <Java_com_ctf_app3_MainActivity_check@@Base+0x538>)
     a7c:	6bd3      	ldr	r3, [r2, #60]	; 0x3c
     a7e:	44a5      	add	sp, r4
     a80:	6413      	str	r3, [r2, #64]	; 0x40
     a82:	1c05      	adds	r5, r0, #0
     a84:	1c0e      	adds	r6, r1, #0
     a86:	a817      	add	r0, sp, #92	; 0x5c
     a88:	1d11      	adds	r1, r2, #4
     a8a:	2240      	movs	r2, #64	; 0x40
     a8c:	f7ff ed5e 	blx	54c <memcpy@plt>
     a90:	2301      	movs	r3, #1
     a92:	425b      	negs	r3, r3
     a94:	9316      	str	r3, [sp, #88]	; 0x58
     a96:	ac16      	add	r4, sp, #88	; 0x58
     a98:	4668      	mov	r0, sp
     a9a:	6c21      	ldr	r1, [r4, #64]	; 0x40
     a9c:	f7ff fe3a 	bl	714 <Java_com_ctf_app3_MainActivity_check@@Base+0x168>
     aa0:	2800      	cmp	r0, #0
     aa2:	d001      	beq.n	aa8 <Java_com_ctf_app3_MainActivity_check@@Base+0x4fc>
     aa4:	2709      	movs	r7, #9
     aa6:	e014      	b.n	ad2 <Java_com_ctf_app3_MainActivity_check@@Base+0x526>
     aa8:	1c20      	adds	r0, r4, #0
     aaa:	210c      	movs	r1, #12
     aac:	466a      	mov	r2, sp
     aae:	f7ff ffd7 	bl	a60 <Java_com_ctf_app3_MainActivity_check@@Base+0x4b4>
     ab2:	1c20      	adds	r0, r4, #0
     ab4:	1c31      	adds	r1, r6, #0
     ab6:	47a8      	blx	r5
     ab8:	2800      	cmp	r0, #0
     aba:	d1f3      	bne.n	aa4 <Java_com_ctf_app3_MainActivity_check@@Base+0x4f8>
     abc:	9b04      	ldr	r3, [sp, #16]
     abe:	2008      	movs	r0, #8
     ac0:	4669      	mov	r1, sp
     ac2:	1c22      	adds	r2, r4, #0
     ac4:	4798      	blx	r3
     ac6:	1e07      	subs	r7, r0, #0
     ac8:	2f05      	cmp	r7, #5
     aca:	d002      	beq.n	ad2 <Java_com_ctf_app3_MainActivity_check@@Base+0x526>
     acc:	2809      	cmp	r0, #9
     ace:	d1e2      	bne.n	a96 <Java_com_ctf_app3_MainActivity_check@@Base+0x4ea>
     ad0:	e7e8      	b.n	aa4 <Java_com_ctf_app3_MainActivity_check@@Base+0x4f8>
     ad2:	1c20      	adds	r0, r4, #0
     ad4:	f7ff fe70 	bl	7b8 <Java_com_ctf_app3_MainActivity_check@@Base+0x20c>
     ad8:	1c38      	adds	r0, r7, #0
     ada:	238f      	movs	r3, #143	; 0x8f
     adc:	009b      	lsls	r3, r3, #2
     ade:	449d      	add	sp, r3
     ae0:	bdf0      	pop	{r4, r5, r6, r7, pc}
     ae2:	46c0      	nop			; (mov r8, r8)
     ae4:	fdc4 ffff 	stc2l	15, cr15, [r4, #1020]	; 0x3fc
     ae8:	b5f0      	push	{r4, r5, r6, r7, lr}
     aea:	b08d      	sub	sp, #52	; 0x34
     aec:	9303      	str	r3, [sp, #12]
     aee:	1c16      	adds	r6, r2, #0
     af0:	2303      	movs	r3, #3
     af2:	1c02      	adds	r2, r0, #0
     af4:	401a      	ands	r2, r3
     af6:	9201      	str	r2, [sp, #4]
     af8:	6cca      	ldr	r2, [r1, #76]	; 0x4c
     afa:	9007      	str	r0, [sp, #28]
     afc:	9803      	ldr	r0, [sp, #12]
     afe:	1c0c      	adds	r4, r1, #0
     b00:	1d17      	adds	r7, r2, #4
     b02:	a909      	add	r1, sp, #36	; 0x24
     b04:	6812      	ldr	r2, [r2, #0]
     b06:	9209      	str	r2, [sp, #36]	; 0x24
     b08:	604f      	str	r7, [r1, #4]
     b0a:	2800      	cmp	r0, #0
     b0c:	d106      	bne.n	b1c <Java_com_ctf_app3_MainActivity_check@@Base+0x570>
     b0e:	0212      	lsls	r2, r2, #8
     b10:	9209      	str	r2, [sp, #36]	; 0x24
     b12:	466a      	mov	r2, sp
     b14:	7b12      	ldrb	r2, [r2, #12]
     b16:	724a      	strb	r2, [r1, #9]
     b18:	720b      	strb	r3, [r1, #8]
     b1a:	e00c      	b.n	b36 <Java_com_ctf_app3_MainActivity_check@@Base+0x58a>
     b1c:	9b03      	ldr	r3, [sp, #12]
     b1e:	2b02      	cmp	r3, #2
     b20:	dc09      	bgt.n	b36 <Java_com_ctf_app3_MainActivity_check@@Base+0x58a>
     b22:	0c13      	lsrs	r3, r2, #16
     b24:	724b      	strb	r3, [r1, #9]
     b26:	0412      	lsls	r2, r2, #16
     b28:	061b      	lsls	r3, r3, #24
     b2a:	600a      	str	r2, [r1, #0]
     b2c:	0e1b      	lsrs	r3, r3, #24
     b2e:	2202      	movs	r2, #2
     b30:	4093      	lsls	r3, r2
     b32:	18ff      	adds	r7, r7, r3
     b34:	720a      	strb	r2, [r1, #8]
     b36:	9b01      	ldr	r3, [sp, #4]
     b38:	2b02      	cmp	r3, #2
     b3a:	d100      	bne.n	b3e <Java_com_ctf_app3_MainActivity_check@@Base+0x592>
     b3c:	6ba7      	ldr	r7, [r4, #56]	; 0x38
     b3e:	6d22      	ldr	r2, [r4, #80]	; 0x50
     b40:	2301      	movs	r3, #1
     b42:	4013      	ands	r3, r2
     b44:	d000      	beq.n	b48 <Java_com_ctf_app3_MainActivity_check@@Base+0x59c>
     b46:	e0dd      	b.n	d04 <Java_com_ctf_app3_MainActivity_check@@Base+0x758>
     b48:	9305      	str	r3, [sp, #20]
     b4a:	683b      	ldr	r3, [r7, #0]
     b4c:	9302      	str	r3, [sp, #8]
     b4e:	2b00      	cmp	r3, #0
     b50:	d100      	bne.n	b54 <Java_com_ctf_app3_MainActivity_check@@Base+0x5a8>
     b52:	e0d9      	b.n	d08 <Java_com_ctf_app3_MainActivity_check@@Base+0x75c>
     b54:	9b03      	ldr	r3, [sp, #12]
     b56:	2b02      	cmp	r3, #2
     b58:	d104      	bne.n	b64 <Java_com_ctf_app3_MainActivity_check@@Base+0x5b8>
     b5a:	687b      	ldr	r3, [r7, #4]
     b5c:	1c3d      	adds	r5, r7, #0
     b5e:	9304      	str	r3, [sp, #16]
     b60:	3508      	adds	r5, #8
     b62:	e004      	b.n	b6e <Java_com_ctf_app3_MainActivity_check@@Base+0x5c2>
     b64:	883b      	ldrh	r3, [r7, #0]
     b66:	9302      	str	r3, [sp, #8]
     b68:	1d3d      	adds	r5, r7, #4
     b6a:	887b      	ldrh	r3, [r7, #2]
     b6c:	9304      	str	r3, [sp, #16]
     b6e:	9b04      	ldr	r3, [sp, #16]
     b70:	6ca2      	ldr	r2, [r4, #72]	; 0x48
     b72:	2701      	movs	r7, #1
     b74:	43bb      	bics	r3, r7
     b76:	189b      	adds	r3, r3, r2
     b78:	210f      	movs	r1, #15
     b7a:	1c30      	adds	r0, r6, #0
     b7c:	9306      	str	r3, [sp, #24]
     b7e:	f7ff ff4a 	bl	a16 <Java_com_ctf_app3_MainActivity_check@@Base+0x46a>
     b82:	9b06      	ldr	r3, [sp, #24]
     b84:	2100      	movs	r1, #0
     b86:	4283      	cmp	r3, r0
     b88:	d805      	bhi.n	b96 <Java_com_ctf_app3_MainActivity_check@@Base+0x5ea>
     b8a:	9902      	ldr	r1, [sp, #8]
     b8c:	43b9      	bics	r1, r7
     b8e:	1859      	adds	r1, r3, r1
     b90:	4288      	cmp	r0, r1
     b92:	4180      	sbcs	r0, r0
     b94:	4241      	negs	r1, r0
     b96:	9b04      	ldr	r3, [sp, #16]
     b98:	9a02      	ldr	r2, [sp, #8]
     b9a:	403b      	ands	r3, r7
     b9c:	005b      	lsls	r3, r3, #1
     b9e:	403a      	ands	r2, r7
     ba0:	4313      	orrs	r3, r2
     ba2:	2b01      	cmp	r3, #1
     ba4:	d019      	beq.n	bda <Java_com_ctf_app3_MainActivity_check@@Base+0x62e>
     ba6:	2b00      	cmp	r3, #0
     ba8:	d002      	beq.n	bb0 <Java_com_ctf_app3_MainActivity_check@@Base+0x604>
     baa:	2b02      	cmp	r3, #2
     bac:	d057      	beq.n	c5e <Java_com_ctf_app3_MainActivity_check@@Base+0x6b2>
     bae:	e0cd      	b.n	d4c <Java_com_ctf_app3_MainActivity_check@@Base+0x7a0>
     bb0:	9b01      	ldr	r3, [sp, #4]
     bb2:	1d2f      	adds	r7, r5, #4
     bb4:	2b00      	cmp	r3, #0
     bb6:	d0c8      	beq.n	b4a <Java_com_ctf_app3_MainActivity_check@@Base+0x59e>
     bb8:	2900      	cmp	r1, #0
     bba:	d0c6      	beq.n	b4a <Java_com_ctf_app3_MainActivity_check@@Base+0x59e>
     bbc:	1c28      	adds	r0, r5, #0
     bbe:	f7ff fd4f 	bl	660 <Java_com_ctf_app3_MainActivity_check@@Base+0xb4>
     bc2:	63a7      	str	r7, [r4, #56]	; 0x38
     bc4:	1c05      	adds	r5, r0, #0
     bc6:	1c20      	adds	r0, r4, #0
     bc8:	f7ff ecc6 	blx	558 <__cxa_begin_cleanup@plt>
     bcc:	2800      	cmp	r0, #0
     bce:	d100      	bne.n	bd2 <Java_com_ctf_app3_MainActivity_check@@Base+0x626>
     bd0:	e0bc      	b.n	d4c <Java_com_ctf_app3_MainActivity_check@@Base+0x7a0>
     bd2:	1c30      	adds	r0, r6, #0
     bd4:	210f      	movs	r1, #15
     bd6:	1c2a      	adds	r2, r5, #0
     bd8:	e0b4      	b.n	d44 <Java_com_ctf_app3_MainActivity_check@@Base+0x798>
     bda:	9a01      	ldr	r2, [sp, #4]
     bdc:	2a00      	cmp	r2, #0
     bde:	d126      	bne.n	c2e <Java_com_ctf_app3_MainActivity_check@@Base+0x682>
     be0:	2900      	cmp	r1, #0
     be2:	d039      	beq.n	c58 <Java_com_ctf_app3_MainActivity_check@@Base+0x6ac>
     be4:	682a      	ldr	r2, [r5, #0]
     be6:	0fd7      	lsrs	r7, r2, #31
     be8:	686a      	ldr	r2, [r5, #4]
     bea:	1c91      	adds	r1, r2, #2
     bec:	d100      	bne.n	bf0 <Java_com_ctf_app3_MainActivity_check@@Base+0x644>
     bee:	e0ad      	b.n	d4c <Java_com_ctf_app3_MainActivity_check@@Base+0x7a0>
     bf0:	1c21      	adds	r1, r4, #0
     bf2:	3158      	adds	r1, #88	; 0x58
     bf4:	9108      	str	r1, [sp, #32]
     bf6:	3201      	adds	r2, #1
     bf8:	d00b      	beq.n	c12 <Java_com_ctf_app3_MainActivity_check@@Base+0x666>
     bfa:	1d28      	adds	r0, r5, #4
     bfc:	f7ff fe01 	bl	802 <Java_com_ctf_app3_MainActivity_check@@Base+0x256>
     c00:	1c3a      	adds	r2, r7, #0
     c02:	ab08      	add	r3, sp, #32
     c04:	1c01      	adds	r1, r0, #0
     c06:	1c20      	adds	r0, r4, #0
     c08:	f7ff ecac 	blx	564 <__cxa_type_match@plt>
     c0c:	1e07      	subs	r7, r0, #0
     c0e:	d023      	beq.n	c58 <Java_com_ctf_app3_MainActivity_check@@Base+0x6ac>
     c10:	e000      	b.n	c14 <Java_com_ctf_app3_MainActivity_check@@Base+0x668>
     c12:	1c1f      	adds	r7, r3, #0
     c14:	1c30      	adds	r0, r6, #0
     c16:	210d      	movs	r1, #13
     c18:	f7ff fefd 	bl	a16 <Java_com_ctf_app3_MainActivity_check@@Base+0x46a>
     c1c:	9b08      	ldr	r3, [sp, #32]
     c1e:	6220      	str	r0, [r4, #32]
     c20:	2f02      	cmp	r7, #2
     c22:	d000      	beq.n	c26 <Java_com_ctf_app3_MainActivity_check@@Base+0x67a>
     c24:	e09a      	b.n	d5c <Java_com_ctf_app3_MainActivity_check@@Base+0x7b0>
     c26:	62e3      	str	r3, [r4, #44]	; 0x2c
     c28:	1c23      	adds	r3, r4, #0
     c2a:	332c      	adds	r3, #44	; 0x2c
     c2c:	e096      	b.n	d5c <Java_com_ctf_app3_MainActivity_check@@Base+0x7b0>
     c2e:	1c30      	adds	r0, r6, #0
     c30:	210d      	movs	r1, #13
     c32:	6a27      	ldr	r7, [r4, #32]
     c34:	f7ff feef 	bl	a16 <Java_com_ctf_app3_MainActivity_check@@Base+0x46a>
     c38:	4287      	cmp	r7, r0
     c3a:	d10d      	bne.n	c58 <Java_com_ctf_app3_MainActivity_check@@Base+0x6ac>
     c3c:	6aa3      	ldr	r3, [r4, #40]	; 0x28
     c3e:	429d      	cmp	r5, r3
     c40:	d10a      	bne.n	c58 <Java_com_ctf_app3_MainActivity_check@@Base+0x6ac>
     c42:	1c28      	adds	r0, r5, #0
     c44:	f7ff fd0c 	bl	660 <Java_com_ctf_app3_MainActivity_check@@Base+0xb4>
     c48:	210f      	movs	r1, #15
     c4a:	1c02      	adds	r2, r0, #0
     c4c:	1c30      	adds	r0, r6, #0
     c4e:	f7ff ff07 	bl	a60 <Java_com_ctf_app3_MainActivity_check@@Base+0x4b4>
     c52:	1c30      	adds	r0, r6, #0
     c54:	2100      	movs	r1, #0
     c56:	e048      	b.n	cea <Java_com_ctf_app3_MainActivity_check@@Base+0x73e>
     c58:	3508      	adds	r5, #8
     c5a:	1c2f      	adds	r7, r5, #0
     c5c:	e775      	b.n	b4a <Java_com_ctf_app3_MainActivity_check@@Base+0x59e>
     c5e:	682b      	ldr	r3, [r5, #0]
     c60:	005b      	lsls	r3, r3, #1
     c62:	085b      	lsrs	r3, r3, #1
     c64:	9302      	str	r3, [sp, #8]
     c66:	9b01      	ldr	r3, [sp, #4]
     c68:	2b00      	cmp	r3, #0
     c6a:	d11c      	bne.n	ca6 <Java_com_ctf_app3_MainActivity_check@@Base+0x6fa>
     c6c:	2900      	cmp	r1, #0
     c6e:	d040      	beq.n	cf2 <Java_com_ctf_app3_MainActivity_check@@Base+0x746>
     c70:	9b07      	ldr	r3, [sp, #28]
     c72:	071b      	lsls	r3, r3, #28
     c74:	d502      	bpl.n	c7c <Java_com_ctf_app3_MainActivity_check@@Base+0x6d0>
     c76:	9b02      	ldr	r3, [sp, #8]
     c78:	2b00      	cmp	r3, #0
     c7a:	d13a      	bne.n	cf2 <Java_com_ctf_app3_MainActivity_check@@Base+0x746>
     c7c:	9f01      	ldr	r7, [sp, #4]
     c7e:	9b02      	ldr	r3, [sp, #8]
     c80:	429f      	cmp	r7, r3
     c82:	d065      	beq.n	d50 <Java_com_ctf_app3_MainActivity_check@@Base+0x7a4>
     c84:	3701      	adds	r7, #1
     c86:	1c23      	adds	r3, r4, #0
     c88:	00b8      	lsls	r0, r7, #2
     c8a:	3358      	adds	r3, #88	; 0x58
     c8c:	1828      	adds	r0, r5, r0
     c8e:	9308      	str	r3, [sp, #32]
     c90:	f7ff fdb7 	bl	802 <Java_com_ctf_app3_MainActivity_check@@Base+0x256>
     c94:	2200      	movs	r2, #0
     c96:	ab08      	add	r3, sp, #32
     c98:	1c01      	adds	r1, r0, #0
     c9a:	1c20      	adds	r0, r4, #0
     c9c:	f7ff ec62 	blx	564 <__cxa_type_match@plt>
     ca0:	2800      	cmp	r0, #0
     ca2:	d0ec      	beq.n	c7e <Java_com_ctf_app3_MainActivity_check@@Base+0x6d2>
     ca4:	e025      	b.n	cf2 <Java_com_ctf_app3_MainActivity_check@@Base+0x746>
     ca6:	1c30      	adds	r0, r6, #0
     ca8:	210d      	movs	r1, #13
     caa:	6a27      	ldr	r7, [r4, #32]
     cac:	f7ff feb3 	bl	a16 <Java_com_ctf_app3_MainActivity_check@@Base+0x46a>
     cb0:	4287      	cmp	r7, r0
     cb2:	d11e      	bne.n	cf2 <Java_com_ctf_app3_MainActivity_check@@Base+0x746>
     cb4:	6aa3      	ldr	r3, [r4, #40]	; 0x28
     cb6:	429d      	cmp	r5, r3
     cb8:	d11b      	bne.n	cf2 <Java_com_ctf_app3_MainActivity_check@@Base+0x746>
     cba:	9b02      	ldr	r3, [sp, #8]
     cbc:	62a3      	str	r3, [r4, #40]	; 0x28
     cbe:	2304      	movs	r3, #4
     cc0:	6323      	str	r3, [r4, #48]	; 0x30
     cc2:	2700      	movs	r7, #0
     cc4:	18eb      	adds	r3, r5, r3
     cc6:	62e7      	str	r7, [r4, #44]	; 0x2c
     cc8:	6363      	str	r3, [r4, #52]	; 0x34
     cca:	682b      	ldr	r3, [r5, #0]
     ccc:	42bb      	cmp	r3, r7
     cce:	da0e      	bge.n	cee <Java_com_ctf_app3_MainActivity_check@@Base+0x742>
     cd0:	9802      	ldr	r0, [sp, #8]
     cd2:	3001      	adds	r0, #1
     cd4:	0080      	lsls	r0, r0, #2
     cd6:	1828      	adds	r0, r5, r0
     cd8:	f7ff fcc2 	bl	660 <Java_com_ctf_app3_MainActivity_check@@Base+0xb4>
     cdc:	210f      	movs	r1, #15
     cde:	1c02      	adds	r2, r0, #0
     ce0:	1c30      	adds	r0, r6, #0
     ce2:	f7ff febd 	bl	a60 <Java_com_ctf_app3_MainActivity_check@@Base+0x4b4>
     ce6:	1c30      	adds	r0, r6, #0
     ce8:	1c39      	adds	r1, r7, #0
     cea:	1c22      	adds	r2, r4, #0
     cec:	e02a      	b.n	d44 <Java_com_ctf_app3_MainActivity_check@@Base+0x798>
     cee:	2301      	movs	r3, #1
     cf0:	9305      	str	r3, [sp, #20]
     cf2:	682b      	ldr	r3, [r5, #0]
     cf4:	2b00      	cmp	r3, #0
     cf6:	da00      	bge.n	cfa <Java_com_ctf_app3_MainActivity_check@@Base+0x74e>
     cf8:	3504      	adds	r5, #4
     cfa:	9b02      	ldr	r3, [sp, #8]
     cfc:	3301      	adds	r3, #1
     cfe:	009b      	lsls	r3, r3, #2
     d00:	18ef      	adds	r7, r5, r3
     d02:	e722      	b.n	b4a <Java_com_ctf_app3_MainActivity_check@@Base+0x59e>
     d04:	2300      	movs	r3, #0
     d06:	9305      	str	r3, [sp, #20]
     d08:	9b03      	ldr	r3, [sp, #12]
     d0a:	2b02      	cmp	r3, #2
     d0c:	dd02      	ble.n	d14 <Java_com_ctf_app3_MainActivity_check@@Base+0x768>
     d0e:	f7ff fd7f 	bl	810 <Java_com_ctf_app3_MainActivity_check@@Base+0x264>
     d12:	e003      	b.n	d1c <Java_com_ctf_app3_MainActivity_check@@Base+0x770>
     d14:	1c30      	adds	r0, r6, #0
     d16:	a909      	add	r1, sp, #36	; 0x24
     d18:	f000 fa6d 	bl	11f6 <Java_com_ctf_app3_MainActivity_check@@Base+0xc4a>
     d1c:	2800      	cmp	r0, #0
     d1e:	d115      	bne.n	d4c <Java_com_ctf_app3_MainActivity_check@@Base+0x7a0>
     d20:	9b05      	ldr	r3, [sp, #20]
     d22:	2008      	movs	r0, #8
     d24:	2b00      	cmp	r3, #0
     d26:	d01c      	beq.n	d62 <Java_com_ctf_app3_MainActivity_check@@Base+0x7b6>
     d28:	210f      	movs	r1, #15
     d2a:	1c30      	adds	r0, r6, #0
     d2c:	f7ff fe73 	bl	a16 <Java_com_ctf_app3_MainActivity_check@@Base+0x46a>
     d30:	210e      	movs	r1, #14
     d32:	1c02      	adds	r2, r0, #0
     d34:	1c30      	adds	r0, r6, #0
     d36:	f7ff fe93 	bl	a60 <Java_com_ctf_app3_MainActivity_check@@Base+0x4b4>
     d3a:	4a0b      	ldr	r2, [pc, #44]	; (d68 <Java_com_ctf_app3_MainActivity_check@@Base+0x7bc>)
     d3c:	1c30      	adds	r0, r6, #0
     d3e:	447a      	add	r2, pc
     d40:	6812      	ldr	r2, [r2, #0]
     d42:	210f      	movs	r1, #15
     d44:	f7ff fe8c 	bl	a60 <Java_com_ctf_app3_MainActivity_check@@Base+0x4b4>
     d48:	2007      	movs	r0, #7
     d4a:	e00a      	b.n	d62 <Java_com_ctf_app3_MainActivity_check@@Base+0x7b6>
     d4c:	2009      	movs	r0, #9
     d4e:	e008      	b.n	d62 <Java_com_ctf_app3_MainActivity_check@@Base+0x7b6>
     d50:	1c30      	adds	r0, r6, #0
     d52:	210d      	movs	r1, #13
     d54:	f7ff fe5f 	bl	a16 <Java_com_ctf_app3_MainActivity_check@@Base+0x46a>
     d58:	9b08      	ldr	r3, [sp, #32]
     d5a:	6220      	str	r0, [r4, #32]
     d5c:	2006      	movs	r0, #6
     d5e:	6263      	str	r3, [r4, #36]	; 0x24
     d60:	62a5      	str	r5, [r4, #40]	; 0x28
     d62:	b00d      	add	sp, #52	; 0x34
     d64:	bdf0      	pop	{r4, r5, r6, r7, pc}
     d66:	46c0      	nop			; (mov r8, r8)
     d68:	228e      	movs	r2, #142	; 0x8e
     d6a:	0000      	movs	r0, r0
     d6c:	b508      	push	{r3, lr}
     d6e:	2300      	movs	r3, #0
     d70:	f7ff feba 	bl	ae8 <Java_com_ctf_app3_MainActivity_check@@Base+0x53c>
     d74:	bd08      	pop	{r3, pc}
     d76:	b508      	push	{r3, lr}
     d78:	2301      	movs	r3, #1
     d7a:	f7ff feb5 	bl	ae8 <Java_com_ctf_app3_MainActivity_check@@Base+0x53c>
     d7e:	bd08      	pop	{r3, pc}
     d80:	b508      	push	{r3, lr}
     d82:	2302      	movs	r3, #2
     d84:	f7ff feb0 	bl	ae8 <Java_com_ctf_app3_MainActivity_check@@Base+0x53c>
     d88:	bd08      	pop	{r3, pc}
     d8a:	b5f0      	push	{r4, r5, r6, r7, lr}
     d8c:	1c05      	adds	r5, r0, #0
     d8e:	b0c5      	sub	sp, #276	; 0x114
     d90:	2904      	cmp	r1, #4
     d92:	d900      	bls.n	d96 <Java_com_ctf_app3_MainActivity_check@@Base+0x7ea>
     d94:	e085      	b.n	ea2 <Java_com_ctf_app3_MainActivity_check@@Base+0x8f6>
     d96:	1c08      	adds	r0, r1, #0
     d98:	1c1e      	adds	r6, r3, #0
     d9a:	1c14      	adds	r4, r2, #0
     d9c:	f000 fb94 	bl	14c8 <Java_com_ctf_app3_MainActivity_check@@Base+0xf1c>
     da0:	1d03      	adds	r3, r0, #4
     da2:	2a81      	cmp	r2, #129	; 0x81
     da4:	0055      	lsls	r5, r2, #1
     da6:	2002      	movs	r0, #2
     da8:	2b00      	cmp	r3, #0
     daa:	d000      	beq.n	dae <Java_com_ctf_app3_MainActivity_check@@Base+0x802>
     dac:	e112      	b.n	fd4 <Java_com_ctf_app3_MainActivity_check@@Base+0xa28>
     dae:	0411      	lsls	r1, r2, #16
     db0:	6bab      	ldr	r3, [r5, #56]	; 0x38
     db2:	0c09      	lsrs	r1, r1, #16
     db4:	1d2a      	adds	r2, r5, #4
     db6:	2001      	movs	r0, #1
     db8:	1c07      	adds	r7, r0, #0
     dba:	40b7      	lsls	r7, r6
     dbc:	4239      	tst	r1, r7
     dbe:	d002      	beq.n	dc6 <Java_com_ctf_app3_MainActivity_check@@Base+0x81a>
     dc0:	681f      	ldr	r7, [r3, #0]
     dc2:	3304      	adds	r3, #4
     dc4:	6017      	str	r7, [r2, #0]
     dc6:	3601      	adds	r6, #1
     dc8:	3204      	adds	r2, #4
     dca:	2e10      	cmp	r6, #16
     dcc:	d1f4      	bne.n	db8 <Java_com_ctf_app3_MainActivity_check@@Base+0x80c>
     dce:	2000      	movs	r0, #0
     dd0:	04a2      	lsls	r2, r4, #18
     dd2:	d500      	bpl.n	dd6 <Java_com_ctf_app3_MainActivity_check@@Base+0x82a>
     dd4:	e0fe      	b.n	fd4 <Java_com_ctf_app3_MainActivity_check@@Base+0xa28>
     dd6:	63ab      	str	r3, [r5, #56]	; 0x38
     dd8:	e0fc      	b.n	fd4 <Java_com_ctf_app3_MainActivity_check@@Base+0xa28>
     dda:	2304      	movs	r3, #4
     ddc:	1c32      	adds	r2, r6, #0
     dde:	439a      	bics	r2, r3
     de0:	2a01      	cmp	r2, #1
     de2:	d15e      	bne.n	ea2 <Java_com_ctf_app3_MainActivity_check@@Base+0x8f6>
     de4:	0c23      	lsrs	r3, r4, #16
     de6:	0424      	lsls	r4, r4, #16
     de8:	0c24      	lsrs	r4, r4, #16
     dea:	9301      	str	r3, [sp, #4]
     dec:	18e7      	adds	r7, r4, r3
     dee:	2e01      	cmp	r6, #1
     df0:	d159      	bne.n	ea6 <Java_com_ctf_app3_MainActivity_check@@Base+0x8fa>
     df2:	e050      	b.n	e96 <Java_com_ctf_app3_MainActivity_check@@Base+0x8ea>
     df4:	2b03      	cmp	r3, #3
     df6:	d154      	bne.n	ea2 <Java_com_ctf_app3_MainActivity_check@@Base+0x8f6>
     df8:	0414      	lsls	r4, r2, #16
     dfa:	0c16      	lsrs	r6, r2, #16
     dfc:	0c24      	lsrs	r4, r4, #16
     dfe:	19a3      	adds	r3, r4, r6
     e00:	2b10      	cmp	r3, #16
     e02:	d84e      	bhi.n	ea2 <Java_com_ctf_app3_MainActivity_check@@Base+0x8f6>
     e04:	682b      	ldr	r3, [r5, #0]
     e06:	2208      	movs	r2, #8
     e08:	4213      	tst	r3, r2
     e0a:	d006      	beq.n	e1a <Java_com_ctf_app3_MainActivity_check@@Base+0x86e>
     e0c:	1c28      	adds	r0, r5, #0
     e0e:	4393      	bics	r3, r2
     e10:	3051      	adds	r0, #81	; 0x51
     e12:	602b      	str	r3, [r5, #0]
     e14:	30ff      	adds	r0, #255	; 0xff
     e16:	f000 e924 	blx	1060 <Java_com_ctf_app3_MainActivity_check@@Base+0xab4>
     e1a:	af22      	add	r7, sp, #136	; 0x88
     e1c:	1c38      	adds	r0, r7, #0
     e1e:	00f6      	lsls	r6, r6, #3
     e20:	f000 e91e 	blx	1060 <Java_com_ctf_app3_MainActivity_check@@Base+0xab4>
     e24:	0064      	lsls	r4, r4, #1
     e26:	19be      	adds	r6, r7, r6
     e28:	6bab      	ldr	r3, [r5, #56]	; 0x38
     e2a:	1c31      	adds	r1, r6, #0
     e2c:	1c22      	adds	r2, r4, #0
     e2e:	3a01      	subs	r2, #1
     e30:	d303      	bcc.n	e3a <Java_com_ctf_app3_MainActivity_check@@Base+0x88e>
     e32:	1b88      	subs	r0, r1, r6
     e34:	58c0      	ldr	r0, [r0, r3]
     e36:	c101      	stmia	r1!, {r0}
     e38:	e7f9      	b.n	e2e <Java_com_ctf_app3_MainActivity_check@@Base+0x882>
     e3a:	00a4      	lsls	r4, r4, #2
     e3c:	191c      	adds	r4, r3, r4
     e3e:	63ac      	str	r4, [r5, #56]	; 0x38
     e40:	1c38      	adds	r0, r7, #0
     e42:	f000 e8ec 	blx	101c <Java_com_ctf_app3_MainActivity_check@@Base+0xa70>
     e46:	2000      	movs	r0, #0
     e48:	e0c4      	b.n	fd4 <Java_com_ctf_app3_MainActivity_check@@Base+0xa28>
     e4a:	2b00      	cmp	r3, #0
     e4c:	d129      	bne.n	ea2 <Java_com_ctf_app3_MainActivity_check@@Base+0x8f6>
     e4e:	2a10      	cmp	r2, #16
     e50:	d827      	bhi.n	ea2 <Java_com_ctf_app3_MainActivity_check@@Base+0x8f6>
     e52:	682b      	ldr	r3, [r5, #0]
     e54:	2210      	movs	r2, #16
     e56:	4213      	tst	r3, r2
     e58:	d006      	beq.n	e68 <Java_com_ctf_app3_MainActivity_check@@Base+0x8bc>
     e5a:	1c28      	adds	r0, r5, #0
     e5c:	4393      	bics	r3, r2
     e5e:	30d1      	adds	r0, #209	; 0xd1
     e60:	602b      	str	r3, [r5, #0]
     e62:	30ff      	adds	r0, #255	; 0xff
     e64:	f000 e928 	blx	10b8 <Java_com_ctf_app3_MainActivity_check@@Base+0xb0c>
     e68:	ae22      	add	r6, sp, #136	; 0x88
     e6a:	1c30      	adds	r0, r6, #0
     e6c:	f000 e924 	blx	10b8 <Java_com_ctf_app3_MainActivity_check@@Base+0xb0c>
     e70:	6baa      	ldr	r2, [r5, #56]	; 0x38
     e72:	2300      	movs	r3, #0
     e74:	2101      	movs	r1, #1
     e76:	1c08      	adds	r0, r1, #0
     e78:	4098      	lsls	r0, r3
     e7a:	4204      	tst	r4, r0
     e7c:	d003      	beq.n	e86 <Java_com_ctf_app3_MainActivity_check@@Base+0x8da>
     e7e:	6817      	ldr	r7, [r2, #0]
     e80:	0098      	lsls	r0, r3, #2
     e82:	3204      	adds	r2, #4
     e84:	5037      	str	r7, [r6, r0]
     e86:	3301      	adds	r3, #1
     e88:	2b04      	cmp	r3, #4
     e8a:	d1f4      	bne.n	e76 <Java_com_ctf_app3_MainActivity_check@@Base+0x8ca>
     e8c:	63aa      	str	r2, [r5, #56]	; 0x38
     e8e:	1c30      	adds	r0, r6, #0
     e90:	f000 e908 	blx	10a4 <Java_com_ctf_app3_MainActivity_check@@Base+0xaf8>
     e94:	e7d7      	b.n	e46 <Java_com_ctf_app3_MainActivity_check@@Base+0x89a>
     e96:	2f10      	cmp	r7, #16
     e98:	d803      	bhi.n	ea2 <Java_com_ctf_app3_MainActivity_check@@Base+0x8f6>
     e9a:	9b01      	ldr	r3, [sp, #4]
     e9c:	2b0f      	cmp	r3, #15
     e9e:	d800      	bhi.n	ea2 <Java_com_ctf_app3_MainActivity_check@@Base+0x8f6>
     ea0:	e083      	b.n	faa <Java_com_ctf_app3_MainActivity_check@@Base+0x9fe>
     ea2:	2002      	movs	r0, #2
     ea4:	e096      	b.n	fd4 <Java_com_ctf_app3_MainActivity_check@@Base+0xa28>
     ea6:	2f20      	cmp	r7, #32
     ea8:	d8fb      	bhi.n	ea2 <Java_com_ctf_app3_MainActivity_check@@Base+0x8f6>
     eaa:	9b01      	ldr	r3, [sp, #4]
     eac:	2b0f      	cmp	r3, #15
     eae:	d902      	bls.n	eb6 <Java_com_ctf_app3_MainActivity_check@@Base+0x90a>
     eb0:	2c00      	cmp	r4, #0
     eb2:	d17c      	bne.n	fae <Java_com_ctf_app3_MainActivity_check@@Base+0xa02>
     eb4:	e01c      	b.n	ef0 <Java_com_ctf_app3_MainActivity_check@@Base+0x944>
     eb6:	2f10      	cmp	r7, #16
     eb8:	d977      	bls.n	faa <Java_com_ctf_app3_MainActivity_check@@Base+0x9fe>
     eba:	2e05      	cmp	r6, #5
     ebc:	d1f1      	bne.n	ea2 <Java_com_ctf_app3_MainActivity_check@@Base+0x8f6>
     ebe:	3f10      	subs	r7, #16
     ec0:	682b      	ldr	r3, [r5, #0]
     ec2:	2201      	movs	r2, #1
     ec4:	4213      	tst	r3, r2
     ec6:	d058      	beq.n	f7a <Java_com_ctf_app3_MainActivity_check@@Base+0x9ce>
     ec8:	1c19      	adds	r1, r3, #0
     eca:	4391      	bics	r1, r2
     ecc:	1c28      	adds	r0, r5, #0
     ece:	1c0a      	adds	r2, r1, #0
     ed0:	6029      	str	r1, [r5, #0]
     ed2:	3048      	adds	r0, #72	; 0x48
     ed4:	2e05      	cmp	r6, #5
     ed6:	d14b      	bne.n	f70 <Java_com_ctf_app3_MainActivity_check@@Base+0x9c4>
     ed8:	2302      	movs	r3, #2
     eda:	431a      	orrs	r2, r3
     edc:	602a      	str	r2, [r5, #0]
     ede:	f000 e892 	blx	1004 <Java_com_ctf_app3_MainActivity_check@@Base+0xa58>
     ee2:	2f00      	cmp	r7, #0
     ee4:	d14b      	bne.n	f7e <Java_com_ctf_app3_MainActivity_check@@Base+0x9d2>
     ee6:	a822      	add	r0, sp, #136	; 0x88
     ee8:	f000 e88c 	blx	1004 <Java_com_ctf_app3_MainActivity_check@@Base+0xa58>
     eec:	2f00      	cmp	r7, #0
     eee:	d155      	bne.n	f9c <Java_com_ctf_app3_MainActivity_check@@Base+0x9f0>
     ef0:	1c23      	adds	r3, r4, #0
     ef2:	2700      	movs	r7, #0
     ef4:	6baa      	ldr	r2, [r5, #56]	; 0x38
     ef6:	1c14      	adds	r4, r2, #0
     ef8:	2b00      	cmp	r3, #0
     efa:	dd10      	ble.n	f1e <Java_com_ctf_app3_MainActivity_check@@Base+0x972>
     efc:	005b      	lsls	r3, r3, #1
     efe:	469c      	mov	ip, r3
     f00:	9b01      	ldr	r3, [sp, #4]
     f02:	a922      	add	r1, sp, #136	; 0x88
     f04:	00db      	lsls	r3, r3, #3
     f06:	18cb      	adds	r3, r1, r3
     f08:	1c18      	adds	r0, r3, #0
     f0a:	4661      	mov	r1, ip
     f0c:	3901      	subs	r1, #1
     f0e:	d303      	bcc.n	f18 <Java_com_ctf_app3_MainActivity_check@@Base+0x96c>
     f10:	1ac4      	subs	r4, r0, r3
     f12:	58a4      	ldr	r4, [r4, r2]
     f14:	c010      	stmia	r0!, {r4}
     f16:	e7f9      	b.n	f0c <Java_com_ctf_app3_MainActivity_check@@Base+0x960>
     f18:	4663      	mov	r3, ip
     f1a:	009b      	lsls	r3, r3, #2
     f1c:	18d4      	adds	r4, r2, r3
     f1e:	2f00      	cmp	r7, #0
     f20:	d00f      	beq.n	f42 <Java_com_ctf_app3_MainActivity_check@@Base+0x996>
     f22:	9b01      	ldr	r3, [sp, #4]
     f24:	2b10      	cmp	r3, #16
     f26:	d200      	bcs.n	f2a <Java_com_ctf_app3_MainActivity_check@@Base+0x97e>
     f28:	2310      	movs	r3, #16
     f2a:	3b10      	subs	r3, #16
     f2c:	aa02      	add	r2, sp, #8
     f2e:	00db      	lsls	r3, r3, #3
     f30:	18d3      	adds	r3, r2, r3
     f32:	00f9      	lsls	r1, r7, #3
     f34:	2200      	movs	r2, #0
     f36:	58a0      	ldr	r0, [r4, r2]
     f38:	5098      	str	r0, [r3, r2]
     f3a:	3204      	adds	r2, #4
     f3c:	428a      	cmp	r2, r1
     f3e:	d1fa      	bne.n	f36 <Java_com_ctf_app3_MainActivity_check@@Base+0x98a>
     f40:	18a4      	adds	r4, r4, r2
     f42:	2e01      	cmp	r6, #1
     f44:	d100      	bne.n	f48 <Java_com_ctf_app3_MainActivity_check@@Base+0x99c>
     f46:	3404      	adds	r4, #4
     f48:	63ac      	str	r4, [r5, #56]	; 0x38
     f4a:	2e01      	cmp	r6, #1
     f4c:	d103      	bne.n	f56 <Java_com_ctf_app3_MainActivity_check@@Base+0x9aa>
     f4e:	a822      	add	r0, sp, #136	; 0x88
     f50:	f000 e84c 	blx	fec <Java_com_ctf_app3_MainActivity_check@@Base+0xa40>
     f54:	e777      	b.n	e46 <Java_com_ctf_app3_MainActivity_check@@Base+0x89a>
     f56:	9b01      	ldr	r3, [sp, #4]
     f58:	2b0f      	cmp	r3, #15
     f5a:	d802      	bhi.n	f62 <Java_com_ctf_app3_MainActivity_check@@Base+0x9b6>
     f5c:	a822      	add	r0, sp, #136	; 0x88
     f5e:	f000 e84e 	blx	ffc <Java_com_ctf_app3_MainActivity_check@@Base+0xa50>
     f62:	2f00      	cmp	r7, #0
     f64:	d100      	bne.n	f68 <Java_com_ctf_app3_MainActivity_check@@Base+0x9bc>
     f66:	e76e      	b.n	e46 <Java_com_ctf_app3_MainActivity_check@@Base+0x89a>
     f68:	a802      	add	r0, sp, #8
     f6a:	f000 e850 	blx	100c <Java_com_ctf_app3_MainActivity_check@@Base+0xa60>
     f6e:	e76a      	b.n	e46 <Java_com_ctf_app3_MainActivity_check@@Base+0x89a>
     f70:	2203      	movs	r2, #3
     f72:	4393      	bics	r3, r2
     f74:	602b      	str	r3, [r5, #0]
     f76:	f000 e83e 	blx	ff4 <Java_com_ctf_app3_MainActivity_check@@Base+0xa48>
     f7a:	2f00      	cmp	r7, #0
     f7c:	d020      	beq.n	fc0 <Java_com_ctf_app3_MainActivity_check@@Base+0xa14>
     f7e:	682b      	ldr	r3, [r5, #0]
     f80:	2204      	movs	r2, #4
     f82:	4213      	tst	r3, r2
     f84:	d005      	beq.n	f92 <Java_com_ctf_app3_MainActivity_check@@Base+0x9e6>
     f86:	4393      	bics	r3, r2
     f88:	1c28      	adds	r0, r5, #0
     f8a:	602b      	str	r3, [r5, #0]
     f8c:	30d0      	adds	r0, #208	; 0xd0
     f8e:	f000 e842 	blx	1014 <Java_com_ctf_app3_MainActivity_check@@Base+0xa68>
     f92:	2e01      	cmp	r6, #1
     f94:	d010      	beq.n	fb8 <Java_com_ctf_app3_MainActivity_check@@Base+0xa0c>
     f96:	9b01      	ldr	r3, [sp, #4]
     f98:	2b0f      	cmp	r3, #15
     f9a:	d9a4      	bls.n	ee6 <Java_com_ctf_app3_MainActivity_check@@Base+0x93a>
     f9c:	a802      	add	r0, sp, #8
     f9e:	f000 e83a 	blx	1014 <Java_com_ctf_app3_MainActivity_check@@Base+0xa68>
     fa2:	9a01      	ldr	r2, [sp, #4]
     fa4:	2310      	movs	r3, #16
     fa6:	1a9b      	subs	r3, r3, r2
     fa8:	e7a4      	b.n	ef4 <Java_com_ctf_app3_MainActivity_check@@Base+0x948>
     faa:	2700      	movs	r7, #0
     fac:	e788      	b.n	ec0 <Java_com_ctf_app3_MainActivity_check@@Base+0x914>
     fae:	1c27      	adds	r7, r4, #0
     fb0:	2e05      	cmp	r6, #5
     fb2:	d000      	beq.n	fb6 <Java_com_ctf_app3_MainActivity_check@@Base+0xa0a>
     fb4:	e775      	b.n	ea2 <Java_com_ctf_app3_MainActivity_check@@Base+0x8f6>
     fb6:	e7e2      	b.n	f7e <Java_com_ctf_app3_MainActivity_check@@Base+0x9d2>
     fb8:	a822      	add	r0, sp, #136	; 0x88
     fba:	f000 e81c 	blx	ff4 <Java_com_ctf_app3_MainActivity_check@@Base+0xa48>
     fbe:	e7f0      	b.n	fa2 <Java_com_ctf_app3_MainActivity_check@@Base+0x9f6>
     fc0:	2e01      	cmp	r6, #1
     fc2:	d103      	bne.n	fcc <Java_com_ctf_app3_MainActivity_check@@Base+0xa20>
     fc4:	a822      	add	r0, sp, #136	; 0x88
     fc6:	f000 e816 	blx	ff4 <Java_com_ctf_app3_MainActivity_check@@Base+0xa48>
     fca:	e791      	b.n	ef0 <Java_com_ctf_app3_MainActivity_check@@Base+0x944>
     fcc:	9b01      	ldr	r3, [sp, #4]
     fce:	2b0f      	cmp	r3, #15
     fd0:	d989      	bls.n	ee6 <Java_com_ctf_app3_MainActivity_check@@Base+0x93a>
     fd2:	e78d      	b.n	ef0 <Java_com_ctf_app3_MainActivity_check@@Base+0x944>
     fd4:	b045      	add	sp, #276	; 0x114
     fd6:	bdf0      	pop	{r4, r5, r6, r7, pc}
     fd8:	1034      	asrs	r4, r6, #32
     fda:	e280      	b.n	14de <Java_com_ctf_app3_MainActivity_check@@Base+0xf32>
     fdc:	0038      	movs	r0, r7
     fde:	e891 0038 	ldmia.w	r1, {r3, r4, r5}
     fe2:	e92d 0fff 	stmdb	sp!, {r0, r1, r2, r3, r4, r5, r6, r7, r8, r9, sl, fp}
     fe6:	e890 e000 	ldmia.w	r0, {sp, lr, pc}
     fea:	e89d 0b21 	ldmia.w	sp, {r0, r5, r8, r9, fp}
     fee:	ec90 ff1e 	ldc	15, cr15, [r0], {30}
     ff2:	e12f      	b.n	1254 <Java_com_ctf_app3_MainActivity_check@@Base+0xca8>
     ff4:	0b21      	lsrs	r1, r4, #12
     ff6:	ec80 ff1e 	stc	15, cr15, [r0], {30}
     ffa:	e12f      	b.n	125c <Java_com_ctf_app3_MainActivity_check@@Base+0xcb0>
     ffc:	0b20      	lsrs	r0, r4, #12
     ffe:	ec90 ff1e 	ldc	15, cr15, [r0], {30}
    1002:	e12f      	b.n	1264 <Java_com_ctf_app3_MainActivity_check@@Base+0xcb8>
    1004:	0b20      	lsrs	r0, r4, #12
    1006:	ec80 ff1e 	stc	15, cr15, [r0], {30}
    100a:	e12f      	b.n	126c <Java_com_ctf_app3_MainActivity_check@@Base+0xcc0>
    100c:	0b20      	lsrs	r0, r4, #12
    100e:	ecd0 ff1e 	ldcl	15, cr15, [r0], {30}
    1012:	e12f      	b.n	1274 <Java_com_ctf_app3_MainActivity_check@@Base+0xcc8>
    1014:	0b20      	lsrs	r0, r4, #12
    1016:	ecc0 ff1e 	stcl	15, cr15, [r0], {30}
    101a:	e12f      	b.n	127c <Java_com_ctf_app3_MainActivity_check@@Base+0xcd0>
    101c:	0102      	lsls	r2, r0, #4
    101e:	ecf0 1102 	ldfe	f1, [r0], #8
    1022:	ecf0 2102 	ldfe	f2, [r0], #8
    1026:	ecf0 3102 	ldfe	f3, [r0], #8
    102a:	ecf0 4102 	ldfe	f4, [r0], #8
    102e:	ecf0 5102 	ldfe	f5, [r0], #8
    1032:	ecf0 6102 	ldfe	f6, [r0], #8
    1036:	ecf0 7102 	ldfe	f7, [r0], #8
    103a:	ecf0 8102 	ldfp	f0, [r0], #8
    103e:	ecf0 9102 	ldfp	f1, [r0], #8
    1042:	ecf0 a102 	ldfp	f2, [r0], #8
    1046:	ecf0 b102 	ldfp	f3, [r0], #8
    104a:	ecf0 c102 	ldfp	f4, [r0], #8
    104e:	ecf0 d102 	ldfp	f5, [r0], #8
    1052:	ecf0 e102 	ldfp	f6, [r0], #8
    1056:	ecf0 f102 	ldfp	f7, [r0], #8
    105a:	ecf0 ff1e 	ldcl	15, cr15, [r0], #120	; 0x78
    105e:	e12f      	b.n	12c0 <Java_com_ctf_app3_MainActivity_check@@Base+0xd14>
    1060:	0102      	lsls	r2, r0, #4
    1062:	ece0 1102 	stfe	f1, [r0], #8
    1066:	ece0 2102 	stfe	f2, [r0], #8
    106a:	ece0 3102 	stfe	f3, [r0], #8
    106e:	ece0 4102 	stfe	f4, [r0], #8
    1072:	ece0 5102 	stfe	f5, [r0], #8
    1076:	ece0 6102 	stfe	f6, [r0], #8
    107a:	ece0 7102 	stfe	f7, [r0], #8
    107e:	ece0 8102 	stfp	f0, [r0], #8
    1082:	ece0 9102 	stfp	f1, [r0], #8
    1086:	ece0 a102 	stfp	f2, [r0], #8
    108a:	ece0 b102 	stfp	f3, [r0], #8
    108e:	ece0 c102 	stfp	f4, [r0], #8
    1092:	ece0 d102 	stfp	f5, [r0], #8
    1096:	ece0 e102 	stfp	f6, [r0], #8
    109a:	ece0 f102 	stfp	f7, [r0], #8
    109e:	ece0 ff1e 	stcl	15, cr15, [r0], #120	; 0x78
    10a2:	e12f      	b.n	1304 <Java_com_ctf_app3_MainActivity_check@@Base+0xd58>
    10a4:	8101      	strh	r1, [r0, #8]
    10a6:	fcb0 9101 	ldc2	1, cr9, [r0], #4
    10aa:	fcb0 a101 	ldc2	1, cr10, [r0], #4
    10ae:	fcb0 b101 	ldc2	1, cr11, [r0], #4
    10b2:	fcb0 ff1e 	ldc2	15, cr15, [r0], #120	; 0x78
    10b6:	e12f      	b.n	1318 <Java_com_ctf_app3_MainActivity_check@@Base+0xd6c>
    10b8:	8101      	strh	r1, [r0, #8]
    10ba:	fca0 9101 	stc2	1, cr9, [r0], #4
    10be:	fca0 a101 	stc2	1, cr10, [r0], #4
    10c2:	fca0 b101 	stc2	1, cr11, [r0], #4
    10c6:	fca0 ff1e 	stc2	15, cr15, [r0], #120	; 0x78
    10ca:	e12f      	b.n	132c <Java_com_ctf_app3_MainActivity_check@@Base+0xd80>
    10cc:	e000      	b.n	10d0 <Java_com_ctf_app3_MainActivity_check@@Base+0xb24>
    10ce:	e92d 1fff 	stmdb	sp!, {r0, r1, r2, r3, r4, r5, r6, r7, r8, r9, sl, fp, ip}
    10d2:	e92d 3000 	stmdb	sp!, {ip, sp}
    10d6:	e3a0      	b.n	181a <Java_com_ctf_app3_MainActivity_check@@Base+0x126e>
    10d8:	000c      	movs	r4, r1
    10da:	e92d 1004 	stmdb	sp!, {r2, ip}
    10de:	e28d      	b.n	15fc <Java_com_ctf_app3_MainActivity_check@@Base+0x1050>
    10e0:	c004      	stmia	r0!, {r2}
    10e2:	e28f      	b.n	1604 <Java_com_ctf_app3_MainActivity_check@@Base+0x1058>
    10e4:	c001      	stmia	r0!, {r0}
    10e6:	e38c      	b.n	1802 <Java_com_ctf_app3_MainActivity_check@@Base+0x1256>
    10e8:	ff1c e12f 	vrhadd.u16	d14, d12, d31
    10ec:	f7ff fc10 	bl	910 <Java_com_ctf_app3_MainActivity_check@@Base+0x364>
    10f0:	9b10      	ldr	r3, [sp, #64]	; 0x40
    10f2:	b012      	add	sp, #72	; 0x48
    10f4:	4718      	bx	r3
    10f6:	46c0      	nop			; (mov r8, r8)
    10f8:	e000      	b.n	10fc <Java_com_ctf_app3_MainActivity_check@@Base+0xb50>
    10fa:	e92d 1fff 	stmdb	sp!, {r0, r1, r2, r3, r4, r5, r6, r7, r8, r9, sl, fp, ip}
    10fe:	e92d 3000 	stmdb	sp!, {ip, sp}
    1102:	e3a0      	b.n	1846 <Java_com_ctf_app3_MainActivity_check@@Base+0x129a>
    1104:	000c      	movs	r4, r1
    1106:	e92d 1004 	stmdb	sp!, {r2, ip}
    110a:	e28d      	b.n	1628 <Java_com_ctf_app3_MainActivity_check@@Base+0x107c>
    110c:	c004      	stmia	r0!, {r2}
    110e:	e28f      	b.n	1630 <Java_com_ctf_app3_MainActivity_check@@Base+0x1084>
    1110:	c001      	stmia	r0!, {r0}
    1112:	e38c      	b.n	182e <Java_com_ctf_app3_MainActivity_check@@Base+0x1282>
    1114:	ff1c e12f 	vrhadd.u16	d14, d12, d31
    1118:	f7ff fc2b 	bl	972 <Java_com_ctf_app3_MainActivity_check@@Base+0x3c6>
    111c:	9b10      	ldr	r3, [sp, #64]	; 0x40
    111e:	b012      	add	sp, #72	; 0x48
    1120:	4718      	bx	r3
    1122:	46c0      	nop			; (mov r8, r8)
    1124:	e000      	b.n	1128 <Java_com_ctf_app3_MainActivity_check@@Base+0xb7c>
    1126:	e92d 1fff 	stmdb	sp!, {r0, r1, r2, r3, r4, r5, r6, r7, r8, r9, sl, fp, ip}
    112a:	e92d 3000 	stmdb	sp!, {ip, sp}
    112e:	e3a0      	b.n	1872 <Java_com_ctf_app3_MainActivity_check@@Base+0x12c6>
    1130:	000c      	movs	r4, r1
    1132:	e92d 1004 	stmdb	sp!, {r2, ip}
    1136:	e28d      	b.n	1654 <Java_com_ctf_app3_MainActivity_check@@Base+0x10a8>
    1138:	c004      	stmia	r0!, {r2}
    113a:	e28f      	b.n	165c <Java_com_ctf_app3_MainActivity_check@@Base+0x10b0>
    113c:	c001      	stmia	r0!, {r0}
    113e:	e38c      	b.n	185a <Java_com_ctf_app3_MainActivity_check@@Base+0x12ae>
    1140:	ff1c e12f 	vrhadd.u16	d14, d12, d31
    1144:	f7ff fc37 	bl	9b6 <Java_com_ctf_app3_MainActivity_check@@Base+0x40a>
    1148:	9b10      	ldr	r3, [sp, #64]	; 0x40
    114a:	b012      	add	sp, #72	; 0x48
    114c:	4718      	bx	r3
    114e:	46c0      	nop			; (mov r8, r8)
    1150:	e000      	b.n	1154 <Java_com_ctf_app3_MainActivity_check@@Base+0xba8>
    1152:	e92d 1fff 	stmdb	sp!, {r0, r1, r2, r3, r4, r5, r6, r7, r8, r9, sl, fp, ip}
    1156:	e92d 3000 	stmdb	sp!, {ip, sp}
    115a:	e3a0      	b.n	189e <Java_com_ctf_app3_MainActivity_check@@Base+0x12f2>
    115c:	000c      	movs	r4, r1
    115e:	e92d 3004 	stmdb	sp!, {r2, ip, sp}
    1162:	e28d      	b.n	1680 <Java_com_ctf_app3_MainActivity_check@@Base+0x10d4>
    1164:	c004      	stmia	r0!, {r2}
    1166:	e28f      	b.n	1688 <Java_com_ctf_app3_MainActivity_check@@Base+0x10dc>
    1168:	c001      	stmia	r0!, {r0}
    116a:	e38c      	b.n	1886 <Java_com_ctf_app3_MainActivity_check@@Base+0x12da>
    116c:	ff1c e12f 	vrhadd.u16	d14, d12, d31
    1170:	f7ff fbf5 	bl	95e <Java_com_ctf_app3_MainActivity_check@@Base+0x3b2>
    1174:	9b10      	ldr	r3, [sp, #64]	; 0x40
    1176:	b012      	add	sp, #72	; 0x48
    1178:	4718      	bx	r3
    117a:	46c0      	nop			; (mov r8, r8)
    117c:	e000      	b.n	1180 <Java_com_ctf_app3_MainActivity_check@@Base+0xbd4>
    117e:	e92d 1fff 	stmdb	sp!, {r0, r1, r2, r3, r4, r5, r6, r7, r8, r9, sl, fp, ip}
    1182:	e92d 3000 	stmdb	sp!, {ip, sp}
    1186:	e3a0      	b.n	18ca <Java_com_ctf_app3_MainActivity_check@@Base+0x131e>
    1188:	000c      	movs	r4, r1
    118a:	e92d 2004 	stmdb	sp!, {r2, sp}
    118e:	e28d      	b.n	16ac <Java_com_ctf_app3_MainActivity_check@@Base+0x1100>
    1190:	c004      	stmia	r0!, {r2}
    1192:	e28f      	b.n	16b4 <Java_com_ctf_app3_MainActivity_check@@Base+0x1108>
    1194:	c001      	stmia	r0!, {r0}
    1196:	e38c      	b.n	18b2 <Java_com_ctf_app3_MainActivity_check@@Base+0x1306>
    1198:	ff1c e12f 	vrhadd.u16	d14, d12, d31
    119c:	f7ff fc6c 	bl	a78 <Java_com_ctf_app3_MainActivity_check@@Base+0x4cc>
    11a0:	9b10      	ldr	r3, [sp, #64]	; 0x40
    11a2:	b012      	add	sp, #72	; 0x48
    11a4:	4718      	bx	r3
    11a6:	46c0      	nop			; (mov r8, r8)
    11a8:	7a02      	ldrb	r2, [r0, #8]
    11aa:	1c03      	adds	r3, r0, #0
    11ac:	2a00      	cmp	r2, #0
    11ae:	d10c      	bne.n	11ca <Java_com_ctf_app3_MainActivity_check@@Base+0xc1e>
    11b0:	7a42      	ldrb	r2, [r0, #9]
    11b2:	20b0      	movs	r0, #176	; 0xb0
    11b4:	2a00      	cmp	r2, #0
    11b6:	d00e      	beq.n	11d6 <Java_com_ctf_app3_MainActivity_check@@Base+0xc2a>
    11b8:	3a01      	subs	r2, #1
    11ba:	725a      	strb	r2, [r3, #9]
    11bc:	685a      	ldr	r2, [r3, #4]
    11be:	1d11      	adds	r1, r2, #4
    11c0:	6812      	ldr	r2, [r2, #0]
    11c2:	601a      	str	r2, [r3, #0]
    11c4:	6059      	str	r1, [r3, #4]
    11c6:	2203      	movs	r2, #3
    11c8:	e000      	b.n	11cc <Java_com_ctf_app3_MainActivity_check@@Base+0xc20>
    11ca:	3a01      	subs	r2, #1
    11cc:	6818      	ldr	r0, [r3, #0]
    11ce:	721a      	strb	r2, [r3, #8]
    11d0:	0202      	lsls	r2, r0, #8
    11d2:	0e00      	lsrs	r0, r0, #24
    11d4:	601a      	str	r2, [r3, #0]
    11d6:	4770      	bx	lr
    11d8:	b51f      	push	{r0, r1, r2, r3, r4, lr}
    11da:	2100      	movs	r1, #0
    11dc:	ab03      	add	r3, sp, #12
    11de:	9300      	str	r3, [sp, #0]
    11e0:	220c      	movs	r2, #12
    11e2:	1c0b      	adds	r3, r1, #0
    11e4:	f7ff fbfd 	bl	9e2 <Java_com_ctf_app3_MainActivity_check@@Base+0x436>
    11e8:	9803      	ldr	r0, [sp, #12]
    11ea:	b005      	add	sp, #20
    11ec:	bd00      	pop	{pc}
    11ee:	b508      	push	{r3, lr}
    11f0:	f7ff fff2 	bl	11d8 <Java_com_ctf_app3_MainActivity_check@@Base+0xc2c>
    11f4:	bd08      	pop	{r3, pc}
    11f6:	b5f0      	push	{r4, r5, r6, r7, lr}
    11f8:	2300      	movs	r3, #0
    11fa:	b087      	sub	sp, #28
    11fc:	1c05      	adds	r5, r0, #0
    11fe:	1c0f      	adds	r7, r1, #0
    1200:	9302      	str	r3, [sp, #8]
    1202:	1c38      	adds	r0, r7, #0
    1204:	f7ff ffd0 	bl	11a8 <Java_com_ctf_app3_MainActivity_check@@Base+0xbfc>
    1208:	1e04      	subs	r4, r0, #0
    120a:	2cb0      	cmp	r4, #176	; 0xb0
    120c:	d114      	bne.n	1238 <Java_com_ctf_app3_MainActivity_check@@Base+0xc8c>
    120e:	9b02      	ldr	r3, [sp, #8]
    1210:	2400      	movs	r4, #0
    1212:	42a3      	cmp	r3, r4
    1214:	d000      	beq.n	1218 <Java_com_ctf_app3_MainActivity_check@@Base+0xc6c>
    1216:	e12d      	b.n	1474 <Java_com_ctf_app3_MainActivity_check@@Base+0xec8>
    1218:	ae05      	add	r6, sp, #20
    121a:	1c21      	adds	r1, r4, #0
    121c:	1c23      	adds	r3, r4, #0
    121e:	9600      	str	r6, [sp, #0]
    1220:	1c28      	adds	r0, r5, #0
    1222:	220e      	movs	r2, #14
    1224:	f7ff fbdd 	bl	9e2 <Java_com_ctf_app3_MainActivity_check@@Base+0x436>
    1228:	9600      	str	r6, [sp, #0]
    122a:	1c28      	adds	r0, r5, #0
    122c:	1c21      	adds	r1, r4, #0
    122e:	220f      	movs	r2, #15
    1230:	1c23      	adds	r3, r4, #0
    1232:	f7ff fbfb 	bl	a2c <Java_com_ctf_app3_MainActivity_check@@Base+0x480>
    1236:	e11d      	b.n	1474 <Java_com_ctf_app3_MainActivity_check@@Base+0xec8>
    1238:	237f      	movs	r3, #127	; 0x7f
    123a:	1c02      	adds	r2, r0, #0
    123c:	439a      	bics	r2, r3
    123e:	0613      	lsls	r3, r2, #24
    1240:	0e1b      	lsrs	r3, r3, #24
    1242:	d114      	bne.n	126e <Java_com_ctf_app3_MainActivity_check@@Base+0xcc2>
    1244:	0086      	lsls	r6, r0, #2
    1246:	22ff      	movs	r2, #255	; 0xff
    1248:	4016      	ands	r6, r2
    124a:	aa05      	add	r2, sp, #20
    124c:	9203      	str	r2, [sp, #12]
    124e:	9200      	str	r2, [sp, #0]
    1250:	1c19      	adds	r1, r3, #0
    1252:	220d      	movs	r2, #13
    1254:	1c28      	adds	r0, r5, #0
    1256:	f7ff fbc4 	bl	9e2 <Java_com_ctf_app3_MainActivity_check@@Base+0x436>
    125a:	9a05      	ldr	r2, [sp, #20]
    125c:	3604      	adds	r6, #4
    125e:	18b3      	adds	r3, r6, r2
    1260:	0661      	lsls	r1, r4, #25
    1262:	d500      	bpl.n	1266 <Java_com_ctf_app3_MainActivity_check@@Base+0xcba>
    1264:	1b93      	subs	r3, r2, r6
    1266:	9305      	str	r3, [sp, #20]
    1268:	9b03      	ldr	r3, [sp, #12]
    126a:	9300      	str	r3, [sp, #0]
    126c:	e02f      	b.n	12ce <Java_com_ctf_app3_MainActivity_check@@Base+0xd22>
    126e:	260f      	movs	r6, #15
    1270:	1c03      	adds	r3, r0, #0
    1272:	43b3      	bics	r3, r6
    1274:	061b      	lsls	r3, r3, #24
    1276:	0e1b      	lsrs	r3, r3, #24
    1278:	2b80      	cmp	r3, #128	; 0x80
    127a:	d118      	bne.n	12ae <Java_com_ctf_app3_MainActivity_check@@Base+0xd02>
    127c:	0204      	lsls	r4, r0, #8
    127e:	1c38      	adds	r0, r7, #0
    1280:	f7ff ff92 	bl	11a8 <Java_com_ctf_app3_MainActivity_check@@Base+0xbfc>
    1284:	2680      	movs	r6, #128	; 0x80
    1286:	0236      	lsls	r6, r6, #8
    1288:	4320      	orrs	r0, r4
    128a:	42b0      	cmp	r0, r6
    128c:	d101      	bne.n	1292 <Java_com_ctf_app3_MainActivity_check@@Base+0xce6>
    128e:	2409      	movs	r4, #9
    1290:	e0f0      	b.n	1474 <Java_com_ctf_app3_MainActivity_check@@Base+0xec8>
    1292:	0502      	lsls	r2, r0, #20
    1294:	2100      	movs	r1, #0
    1296:	0104      	lsls	r4, r0, #4
    1298:	0c12      	lsrs	r2, r2, #16
    129a:	1c28      	adds	r0, r5, #0
    129c:	1c0b      	adds	r3, r1, #0
    129e:	f7ff fd74 	bl	d8a <Java_com_ctf_app3_MainActivity_check@@Base+0x7de>
    12a2:	2800      	cmp	r0, #0
    12a4:	d1f3      	bne.n	128e <Java_com_ctf_app3_MainActivity_check@@Base+0xce2>
    12a6:	4234      	tst	r4, r6
    12a8:	d0ab      	beq.n	1202 <Java_com_ctf_app3_MainActivity_check@@Base+0xc56>
    12aa:	2301      	movs	r3, #1
    12ac:	e7a8      	b.n	1200 <Java_com_ctf_app3_MainActivity_check@@Base+0xc54>
    12ae:	2b90      	cmp	r3, #144	; 0x90
    12b0:	d114      	bne.n	12dc <Java_com_ctf_app3_MainActivity_check@@Base+0xd30>
    12b2:	230d      	movs	r3, #13
    12b4:	4003      	ands	r3, r0
    12b6:	2b0d      	cmp	r3, #13
    12b8:	d0e9      	beq.n	128e <Java_com_ctf_app3_MainActivity_check@@Base+0xce2>
    12ba:	1c02      	adds	r2, r0, #0
    12bc:	ac05      	add	r4, sp, #20
    12be:	2100      	movs	r1, #0
    12c0:	4032      	ands	r2, r6
    12c2:	9400      	str	r4, [sp, #0]
    12c4:	1c28      	adds	r0, r5, #0
    12c6:	1c0b      	adds	r3, r1, #0
    12c8:	f7ff fb8b 	bl	9e2 <Java_com_ctf_app3_MainActivity_check@@Base+0x436>
    12cc:	9400      	str	r4, [sp, #0]
    12ce:	2100      	movs	r1, #0
    12d0:	1c28      	adds	r0, r5, #0
    12d2:	220d      	movs	r2, #13
    12d4:	1c0b      	adds	r3, r1, #0
    12d6:	f7ff fba9 	bl	a2c <Java_com_ctf_app3_MainActivity_check@@Base+0x480>
    12da:	e792      	b.n	1202 <Java_com_ctf_app3_MainActivity_check@@Base+0xc56>
    12dc:	2ba0      	cmp	r3, #160	; 0xa0
    12de:	d10f      	bne.n	1300 <Java_com_ctf_app3_MainActivity_check@@Base+0xd54>
    12e0:	23ff      	movs	r3, #255	; 0xff
    12e2:	011b      	lsls	r3, r3, #4
    12e4:	2207      	movs	r2, #7
    12e6:	4382      	bics	r2, r0
    12e8:	1c19      	adds	r1, r3, #0
    12ea:	4111      	asrs	r1, r2
    12ec:	1c0a      	adds	r2, r1, #0
    12ee:	401a      	ands	r2, r3
    12f0:	0703      	lsls	r3, r0, #28
    12f2:	d502      	bpl.n	12fa <Java_com_ctf_app3_MainActivity_check@@Base+0xd4e>
    12f4:	2380      	movs	r3, #128	; 0x80
    12f6:	01db      	lsls	r3, r3, #7
    12f8:	431a      	orrs	r2, r3
    12fa:	1c28      	adds	r0, r5, #0
    12fc:	2100      	movs	r1, #0
    12fe:	e082      	b.n	1406 <Java_com_ctf_app3_MainActivity_check@@Base+0xe5a>
    1300:	2bb0      	cmp	r3, #176	; 0xb0
    1302:	d155      	bne.n	13b0 <Java_com_ctf_app3_MainActivity_check@@Base+0xe04>
    1304:	28b1      	cmp	r0, #177	; 0xb1
    1306:	d10c      	bne.n	1322 <Java_com_ctf_app3_MainActivity_check@@Base+0xd76>
    1308:	1c38      	adds	r0, r7, #0
    130a:	f7ff ff4d 	bl	11a8 <Java_com_ctf_app3_MainActivity_check@@Base+0xbfc>
    130e:	1e02      	subs	r2, r0, #0
    1310:	d0bd      	beq.n	128e <Java_com_ctf_app3_MainActivity_check@@Base+0xce2>
    1312:	1c03      	adds	r3, r0, #0
    1314:	43b3      	bics	r3, r6
    1316:	061b      	lsls	r3, r3, #24
    1318:	0e1b      	lsrs	r3, r3, #24
    131a:	d1b8      	bne.n	128e <Java_com_ctf_app3_MainActivity_check@@Base+0xce2>
    131c:	1c28      	adds	r0, r5, #0
    131e:	1c19      	adds	r1, r3, #0
    1320:	e0a2      	b.n	1468 <Java_com_ctf_app3_MainActivity_check@@Base+0xebc>
    1322:	28b2      	cmp	r0, #178	; 0xb2
    1324:	d128      	bne.n	1378 <Java_com_ctf_app3_MainActivity_check@@Base+0xdcc>
    1326:	2100      	movs	r1, #0
    1328:	ae05      	add	r6, sp, #20
    132a:	220d      	movs	r2, #13
    132c:	1c0b      	adds	r3, r1, #0
    132e:	9600      	str	r6, [sp, #0]
    1330:	1c28      	adds	r0, r5, #0
    1332:	f7ff fb56 	bl	9e2 <Java_com_ctf_app3_MainActivity_check@@Base+0x436>
    1336:	1c38      	adds	r0, r7, #0
    1338:	f7ff ff36 	bl	11a8 <Java_com_ctf_app3_MainActivity_check@@Base+0xbfc>
    133c:	2402      	movs	r4, #2
    133e:	2380      	movs	r3, #128	; 0x80
    1340:	227f      	movs	r2, #127	; 0x7f
    1342:	4003      	ands	r3, r0
    1344:	4694      	mov	ip, r2
    1346:	9905      	ldr	r1, [sp, #20]
    1348:	d009      	beq.n	135e <Java_com_ctf_app3_MainActivity_check@@Base+0xdb2>
    134a:	4662      	mov	r2, ip
    134c:	4002      	ands	r2, r0
    134e:	40a2      	lsls	r2, r4
    1350:	1888      	adds	r0, r1, r2
    1352:	9005      	str	r0, [sp, #20]
    1354:	1c38      	adds	r0, r7, #0
    1356:	3407      	adds	r4, #7
    1358:	f7ff ff26 	bl	11a8 <Java_com_ctf_app3_MainActivity_check@@Base+0xbfc>
    135c:	e7ef      	b.n	133e <Java_com_ctf_app3_MainActivity_check@@Base+0xd92>
    135e:	2281      	movs	r2, #129	; 0x81
    1360:	0092      	lsls	r2, r2, #2
    1362:	1889      	adds	r1, r1, r2
    1364:	4662      	mov	r2, ip
    1366:	4002      	ands	r2, r0
    1368:	40a2      	lsls	r2, r4
    136a:	188c      	adds	r4, r1, r2
    136c:	9405      	str	r4, [sp, #20]
    136e:	9600      	str	r6, [sp, #0]
    1370:	1c28      	adds	r0, r5, #0
    1372:	1c19      	adds	r1, r3, #0
    1374:	220d      	movs	r2, #13
    1376:	e7ae      	b.n	12d6 <Java_com_ctf_app3_MainActivity_check@@Base+0xd2a>
    1378:	28b3      	cmp	r0, #179	; 0xb3
    137a:	d10b      	bne.n	1394 <Java_com_ctf_app3_MainActivity_check@@Base+0xde8>
    137c:	1c38      	adds	r0, r7, #0
    137e:	f7ff ff13 	bl	11a8 <Java_com_ctf_app3_MainActivity_check@@Base+0xbfc>
    1382:	1c02      	adds	r2, r0, #0
    1384:	43b0      	bics	r0, r6
    1386:	0600      	lsls	r0, r0, #24
    1388:	4032      	ands	r2, r6
    138a:	0e00      	lsrs	r0, r0, #24
    138c:	3201      	adds	r2, #1
    138e:	0300      	lsls	r0, r0, #12
    1390:	4302      	orrs	r2, r0
    1392:	e00a      	b.n	13aa <Java_com_ctf_app3_MainActivity_check@@Base+0xdfe>
    1394:	23fc      	movs	r3, #252	; 0xfc
    1396:	4003      	ands	r3, r0
    1398:	2bb4      	cmp	r3, #180	; 0xb4
    139a:	d100      	bne.n	139e <Java_com_ctf_app3_MainActivity_check@@Base+0xdf2>
    139c:	e777      	b.n	128e <Java_com_ctf_app3_MainActivity_check@@Base+0xce2>
    139e:	2307      	movs	r3, #7
    13a0:	401c      	ands	r4, r3
    13a2:	2280      	movs	r2, #128	; 0x80
    13a4:	3401      	adds	r4, #1
    13a6:	0312      	lsls	r2, r2, #12
    13a8:	4322      	orrs	r2, r4
    13aa:	1c28      	adds	r0, r5, #0
    13ac:	2101      	movs	r1, #1
    13ae:	e02a      	b.n	1406 <Java_com_ctf_app3_MainActivity_check@@Base+0xe5a>
    13b0:	2bc0      	cmp	r3, #192	; 0xc0
    13b2:	d149      	bne.n	1448 <Java_com_ctf_app3_MainActivity_check@@Base+0xe9c>
    13b4:	28c6      	cmp	r0, #198	; 0xc6
    13b6:	d10b      	bne.n	13d0 <Java_com_ctf_app3_MainActivity_check@@Base+0xe24>
    13b8:	1c38      	adds	r0, r7, #0
    13ba:	f7ff fef5 	bl	11a8 <Java_com_ctf_app3_MainActivity_check@@Base+0xbfc>
    13be:	1c02      	adds	r2, r0, #0
    13c0:	43b0      	bics	r0, r6
    13c2:	0600      	lsls	r0, r0, #24
    13c4:	4032      	ands	r2, r6
    13c6:	0e00      	lsrs	r0, r0, #24
    13c8:	3201      	adds	r2, #1
    13ca:	0300      	lsls	r0, r0, #12
    13cc:	4302      	orrs	r2, r0
    13ce:	e018      	b.n	1402 <Java_com_ctf_app3_MainActivity_check@@Base+0xe56>
    13d0:	28c7      	cmp	r0, #199	; 0xc7
    13d2:	d10c      	bne.n	13ee <Java_com_ctf_app3_MainActivity_check@@Base+0xe42>
    13d4:	1c38      	adds	r0, r7, #0
    13d6:	f7ff fee7 	bl	11a8 <Java_com_ctf_app3_MainActivity_check@@Base+0xbfc>
    13da:	1e02      	subs	r2, r0, #0
    13dc:	d100      	bne.n	13e0 <Java_com_ctf_app3_MainActivity_check@@Base+0xe34>
    13de:	e756      	b.n	128e <Java_com_ctf_app3_MainActivity_check@@Base+0xce2>
    13e0:	23f0      	movs	r3, #240	; 0xf0
    13e2:	4003      	ands	r3, r0
    13e4:	d000      	beq.n	13e8 <Java_com_ctf_app3_MainActivity_check@@Base+0xe3c>
    13e6:	e752      	b.n	128e <Java_com_ctf_app3_MainActivity_check@@Base+0xce2>
    13e8:	1c28      	adds	r0, r5, #0
    13ea:	2104      	movs	r1, #4
    13ec:	e03c      	b.n	1468 <Java_com_ctf_app3_MainActivity_check@@Base+0xebc>
    13ee:	23f8      	movs	r3, #248	; 0xf8
    13f0:	4003      	ands	r3, r0
    13f2:	2bc0      	cmp	r3, #192	; 0xc0
    13f4:	d109      	bne.n	140a <Java_com_ctf_app3_MainActivity_check@@Base+0xe5e>
    13f6:	230f      	movs	r3, #15
    13f8:	401c      	ands	r4, r3
    13fa:	22a0      	movs	r2, #160	; 0xa0
    13fc:	3401      	adds	r4, #1
    13fe:	0312      	lsls	r2, r2, #12
    1400:	4322      	orrs	r2, r4
    1402:	1c28      	adds	r0, r5, #0
    1404:	2103      	movs	r1, #3
    1406:	1c0b      	adds	r3, r1, #0
    1408:	e02e      	b.n	1468 <Java_com_ctf_app3_MainActivity_check@@Base+0xebc>
    140a:	28c8      	cmp	r0, #200	; 0xc8
    140c:	d10c      	bne.n	1428 <Java_com_ctf_app3_MainActivity_check@@Base+0xe7c>
    140e:	1c38      	adds	r0, r7, #0
    1410:	f7ff feca 	bl	11a8 <Java_com_ctf_app3_MainActivity_check@@Base+0xbfc>
    1414:	220f      	movs	r2, #15
    1416:	1c03      	adds	r3, r0, #0
    1418:	4393      	bics	r3, r2
    141a:	061b      	lsls	r3, r3, #24
    141c:	0e1b      	lsrs	r3, r3, #24
    141e:	3310      	adds	r3, #16
    1420:	4002      	ands	r2, r0
    1422:	031b      	lsls	r3, r3, #12
    1424:	3201      	adds	r2, #1
    1426:	e01b      	b.n	1460 <Java_com_ctf_app3_MainActivity_check@@Base+0xeb4>
    1428:	28c9      	cmp	r0, #201	; 0xc9
    142a:	d000      	beq.n	142e <Java_com_ctf_app3_MainActivity_check@@Base+0xe82>
    142c:	e72f      	b.n	128e <Java_com_ctf_app3_MainActivity_check@@Base+0xce2>
    142e:	1c38      	adds	r0, r7, #0
    1430:	f7ff feba 	bl	11a8 <Java_com_ctf_app3_MainActivity_check@@Base+0xbfc>
    1434:	230f      	movs	r3, #15
    1436:	1c02      	adds	r2, r0, #0
    1438:	4398      	bics	r0, r3
    143a:	0600      	lsls	r0, r0, #24
    143c:	401a      	ands	r2, r3
    143e:	0e00      	lsrs	r0, r0, #24
    1440:	3201      	adds	r2, #1
    1442:	0300      	lsls	r0, r0, #12
    1444:	4302      	orrs	r2, r0
    1446:	e00c      	b.n	1462 <Java_com_ctf_app3_MainActivity_check@@Base+0xeb6>
    1448:	2207      	movs	r2, #7
    144a:	1c03      	adds	r3, r0, #0
    144c:	4393      	bics	r3, r2
    144e:	061b      	lsls	r3, r3, #24
    1450:	0e1b      	lsrs	r3, r3, #24
    1452:	2bd0      	cmp	r3, #208	; 0xd0
    1454:	d000      	beq.n	1458 <Java_com_ctf_app3_MainActivity_check@@Base+0xeac>
    1456:	e71a      	b.n	128e <Java_com_ctf_app3_MainActivity_check@@Base+0xce2>
    1458:	4002      	ands	r2, r0
    145a:	2380      	movs	r3, #128	; 0x80
    145c:	3201      	adds	r2, #1
    145e:	031b      	lsls	r3, r3, #12
    1460:	431a      	orrs	r2, r3
    1462:	1c28      	adds	r0, r5, #0
    1464:	2101      	movs	r1, #1
    1466:	2305      	movs	r3, #5
    1468:	f7ff fc8f 	bl	d8a <Java_com_ctf_app3_MainActivity_check@@Base+0x7de>
    146c:	2800      	cmp	r0, #0
    146e:	d000      	beq.n	1472 <Java_com_ctf_app3_MainActivity_check@@Base+0xec6>
    1470:	e70d      	b.n	128e <Java_com_ctf_app3_MainActivity_check@@Base+0xce2>
    1472:	e6c6      	b.n	1202 <Java_com_ctf_app3_MainActivity_check@@Base+0xc56>
    1474:	1c20      	adds	r0, r4, #0
    1476:	b007      	add	sp, #28
    1478:	bdf0      	pop	{r4, r5, r6, r7, pc}
    147a:	b51f      	push	{r0, r1, r2, r3, r4, lr}
    147c:	6cc2      	ldr	r2, [r0, #76]	; 0x4c
    147e:	ab01      	add	r3, sp, #4
    1480:	6850      	ldr	r0, [r2, #4]
    1482:	0204      	lsls	r4, r0, #8
    1484:	1c10      	adds	r0, r2, #0
    1486:	3008      	adds	r0, #8
    1488:	9002      	str	r0, [sp, #8]
    148a:	2003      	movs	r0, #3
    148c:	7218      	strb	r0, [r3, #8]
    148e:	1c08      	adds	r0, r1, #0
    1490:	79d2      	ldrb	r2, [r2, #7]
    1492:	1c19      	adds	r1, r3, #0
    1494:	9401      	str	r4, [sp, #4]
    1496:	725a      	strb	r2, [r3, #9]
    1498:	f7ff fead 	bl	11f6 <Java_com_ctf_app3_MainActivity_check@@Base+0xc4a>
    149c:	b004      	add	sp, #16
    149e:	bd10      	pop	{r4, pc}
    14a0:	b508      	push	{r3, lr}
    14a2:	f7ff fea4 	bl	11ee <Java_com_ctf_app3_MainActivity_check@@Base+0xc42>
    14a6:	6c80      	ldr	r0, [r0, #72]	; 0x48
    14a8:	bd08      	pop	{r3, pc}
    14aa:	b508      	push	{r3, lr}
    14ac:	f7ff fe9f 	bl	11ee <Java_com_ctf_app3_MainActivity_check@@Base+0xc42>
    14b0:	6cc3      	ldr	r3, [r0, #76]	; 0x4c
    14b2:	79d8      	ldrb	r0, [r3, #7]
    14b4:	0080      	lsls	r0, r0, #2
    14b6:	3008      	adds	r0, #8
    14b8:	1818      	adds	r0, r3, r0
    14ba:	bd08      	pop	{r3, pc}
    14bc:	b508      	push	{r3, lr}
    14be:	f7ff e840 	blx	540 <abort@plt>
    14c2:	b508      	push	{r3, lr}
    14c4:	f7ff e83c 	blx	540 <abort@plt>
    14c8:	b402      	push	{r1}
    14ca:	4671      	mov	r1, lr
    14cc:	0849      	lsrs	r1, r1, #1
    14ce:	0049      	lsls	r1, r1, #1
    14d0:	5c09      	ldrb	r1, [r1, r0]
    14d2:	0049      	lsls	r1, r1, #1
    14d4:	448e      	add	lr, r1
    14d6:	bc02      	pop	{r1}
    14d8:	4770      	bx	lr
    14da:	46c0      	nop			; (mov r8, r8)
